Archive member included because of file (symbol)

archival/libunarchive/lib.a(decompress_bunzip2.o)
                              applets/built-in.o (dealloc_bunzip)
console-tools/lib.a(clear.o)  applets/built-in.o (clear_main)
console-tools/lib.a(reset.o)  applets/built-in.o (reset_main)
coreutils/lib.a(basename.o)   applets/built-in.o (basename_main)
coreutils/lib.a(cat.o)        applets/built-in.o (cat_main)
coreutils/lib.a(chgrp.o)      applets/built-in.o (chgrp_main)
coreutils/lib.a(chmod.o)      applets/built-in.o (chmod_main)
coreutils/lib.a(chown.o)      applets/built-in.o (chown_main)
coreutils/lib.a(cp.o)         applets/built-in.o (cp_main)
coreutils/lib.a(cut.o)        applets/built-in.o (cut_main)
coreutils/lib.a(df.o)         applets/built-in.o (df_main)
coreutils/lib.a(dirname.o)    applets/built-in.o (dirname_main)
coreutils/lib.a(du.o)         applets/built-in.o (du_main)
coreutils/lib.a(echo.o)       applets/built-in.o (echo_main)
coreutils/lib.a(env.o)        applets/built-in.o (env_main)
coreutils/lib.a(expr.o)       applets/built-in.o (expr_main)
coreutils/lib.a(false.o)      applets/built-in.o (false_main)
coreutils/lib.a(head.o)       applets/built-in.o (head_main)
coreutils/lib.a(hostid.o)     applets/built-in.o (hostid_main)
coreutils/lib.a(id.o)         applets/built-in.o (id_main)
coreutils/lib.a(ln.o)         applets/built-in.o (ln_main)
coreutils/lib.a(ls.o)         applets/built-in.o (ls_main)
coreutils/lib.a(mkdir.o)      applets/built-in.o (mkdir_main)
coreutils/lib.a(mkfifo.o)     applets/built-in.o (mkfifo_main)
coreutils/lib.a(mknod.o)      applets/built-in.o (mknod_main)
coreutils/lib.a(mv.o)         applets/built-in.o (mv_main)
coreutils/lib.a(printf.o)     applets/built-in.o (printf_main)
coreutils/lib.a(pwd.o)        applets/built-in.o (pwd_main)
coreutils/lib.a(rm.o)         applets/built-in.o (rm_main)
coreutils/lib.a(rmdir.o)      applets/built-in.o (rmdir_main)
coreutils/lib.a(sleep.o)      applets/built-in.o (sleep_main)
coreutils/lib.a(tail.o)       applets/built-in.o (tail_main)
coreutils/lib.a(test.o)       applets/built-in.o (test_main)
coreutils/lib.a(touch.o)      applets/built-in.o (touch_main)
coreutils/lib.a(true.o)       applets/built-in.o (true_main)
coreutils/lib.a(uname.o)      applets/built-in.o (uname_main)
coreutils/lib.a(usleep.o)     applets/built-in.o (usleep_main)
coreutils/lib.a(yes.o)        applets/built-in.o (yes_main)
coreutils/libcoreutils/lib.a(cp_mv_stat.o)
                              coreutils/lib.a(cp.o) (cp_mv_stat2)
coreutils/libcoreutils/lib.a(getopt_mk_fifo_nod.o)
                              coreutils/lib.a(mkfifo.o) (getopt_mk_fifo_nod)
findutils/lib.a(find.o)       applets/built-in.o (find_main)
findutils/lib.a(grep.o)       applets/built-in.o (grep_main)
findutils/lib.a(xargs.o)      applets/built-in.o (xargs_main)
init/lib.a(halt.o)            applets/built-in.o (halt_main)
libbb/lib.a(ask_confirmation.o)
                              coreutils/lib.a(mv.o) (bb_ask_confirmation)
libbb/lib.a(bb_basename.o)    applets/built-in.o (bb_basename)
libbb/lib.a(bb_pwd.o)         coreutils/lib.a(id.o) (xuname2uid)
libbb/lib.a(bb_strtonum.o)    coreutils/lib.a(printf.o) (bb_strtol)
libbb/lib.a(compare_string_array.o)
                              coreutils/lib.a(expr.o) (index_in_strings)
libbb/lib.a(concat_path_file.o)
                              coreutils/lib.a(cp.o) (concat_path_file)
libbb/lib.a(concat_subpath_file.o)
                              coreutils/lib.a(du.o) (concat_subpath_file)
libbb/lib.a(copy_file.o)      coreutils/lib.a(cp.o) (copy_file)
libbb/lib.a(copyfd.o)         coreutils/lib.a(cat.o) (bb_copyfd_eof)
libbb/lib.a(crc32.o)          archival/libunarchive/lib.a(decompress_bunzip2.o) (crc32_filltable)
libbb/lib.a(default_error_retval.o)
                              applets/built-in.o (xfunc_error_retval)
libbb/lib.a(error_msg.o)      archival/libunarchive/lib.a(decompress_bunzip2.o) (bb_error_msg)
libbb/lib.a(error_msg_and_die.o)
                              applets/built-in.o (xfunc_die)
libbb/lib.a(fclose_nonstdin.o)
                              coreutils/lib.a(head.o) (fclose_if_not_stdin)
libbb/lib.a(fflush_stdout_and_exit.o)
                              coreutils/lib.a(df.o) (fflush_stdout_and_exit)
libbb/lib.a(find_mount_point.o)
                              coreutils/lib.a(df.o) (find_mount_point)
libbb/lib.a(find_root_device.o)
                              coreutils/lib.a(df.o) (find_block_device)
libbb/lib.a(full_write.o)     libbb/lib.a(copyfd.o) (full_write)
libbb/lib.a(get_last_path_component.o)
                              coreutils/lib.a(basename.o) (bb_get_last_path_component)
libbb/lib.a(get_line_from_file.o)
                              coreutils/lib.a(cut.o) (xmalloc_getline)
libbb/lib.a(getopt32.o)       coreutils/lib.a(cat.o) (getopt32)
libbb/lib.a(human_readable.o)
                              coreutils/lib.a(df.o) (make_human_readable_str)
libbb/lib.a(inode_hash.o)     coreutils/lib.a(du.o) (is_in_ino_dev_hashtable)
libbb/lib.a(isdirectory.o)    coreutils/lib.a(ln.o) (is_directory)
libbb/lib.a(last_char_is.o)   coreutils/lib.a(du.o) (last_char_is)
libbb/lib.a(llist.o)          libbb/lib.a(getopt32.o) (llist_add_to_end)
libbb/lib.a(make_directory.o)
                              coreutils/lib.a(mkdir.o) (bb_make_directory)
libbb/lib.a(makedev.o)        coreutils/lib.a(mknod.o) (bb_makedev)
libbb/lib.a(messages.o)       applets/built-in.o (bb_banner)
libbb/lib.a(mode_string.o)    coreutils/lib.a(ls.o) (bb_mode_string)
libbb/lib.a(mtab_file.o)      coreutils/lib.a(df.o) (bb_path_mtab_file)
libbb/lib.a(parse_mode.o)     coreutils/lib.a(chmod.o) (bb_parse_mode)
libbb/lib.a(perror_msg.o)     coreutils/lib.a(chmod.o) (bb_perror_msg)
libbb/lib.a(perror_msg_and_die.o)
                              applets/built-in.o (bb_perror_msg_and_die)
libbb/lib.a(perror_nomsg_and_die.o)
                              coreutils/lib.a(sleep.o) (bb_perror_nomsg_and_die)
libbb/lib.a(process_escape_sequence.o)
                              coreutils/lib.a(echo.o) (bb_process_escape_sequence)
libbb/lib.a(procps.o)         coreutils/lib.a(ls.o) (get_cached_groupname)
libbb/lib.a(read.o)           coreutils/lib.a(tail.o) (safe_read)
libbb/lib.a(recursive_action.o)
                              coreutils/lib.a(chmod.o) (recursive_action)
libbb/lib.a(remove_file.o)    coreutils/lib.a(mv.o) (remove_file)
libbb/lib.a(safe_strncpy.o)   libbb/lib.a(bb_pwd.o) (safe_strncpy)
libbb/lib.a(safe_write.o)     archival/libunarchive/lib.a(decompress_bunzip2.o) (safe_write)
libbb/lib.a(skip_whitespace.o)
                              applets/built-in.o (skip_whitespace)
libbb/lib.a(verror_msg.o)     libbb/lib.a(error_msg.o) (bb_verror_msg)
libbb/lib.a(vfork_daemon_rexec.o)
                              findutils/lib.a(find.o) (spawn_and_wait)
libbb/lib.a(wfopen.o)         coreutils/lib.a(cut.o) (fopen_or_warn)
libbb/lib.a(wfopen_input.o)   coreutils/lib.a(head.o) (fopen_or_warn_stdin)
libbb/lib.a(xatonum.o)        coreutils/lib.a(head.o) (xatoul_sfx)
libbb/lib.a(xfuncs.o)         applets/built-in.o (get_terminal_width_height)
libbb/lib.a(xgetcwd.o)        coreutils/lib.a(pwd.o) (xrealloc_getcwd_or_warn)
libbb/lib.a(xreadlink.o)      coreutils/lib.a(ls.o) (xmalloc_readlink_or_warn)
libbb/lib.a(xregcomp.o)       coreutils/lib.a(expr.o) (xregcomp)
libpwdgrp/lib.a(uidgid_get.o)
                              coreutils/lib.a(chown.o) (parse_chown_usergroup_or_die)
loginutils/lib.a(addgroup.o)  applets/built-in.o (addgroup_main)
loginutils/lib.a(adduser.o)   applets/built-in.o (adduser_main)
loginutils/lib.a(deluser.o)   applets/built-in.o (deluser_main)
loginutils/lib.a(getty.o)     applets/built-in.o (getty_main)
loginutils/lib.a(login.o)     applets/built-in.o (login_main)
loginutils/lib.a(passwd.o)    applets/built-in.o (passwd_main)
loginutils/lib.a(su.o)        applets/built-in.o (su_main)
loginutils/lib.a(sulogin.o)   applets/built-in.o (sulogin_main)
miscutils/lib.a(less.o)       applets/built-in.o (less_main)
modutils/lib.a(insmod.o)      applets/built-in.o (insmod_main)
modutils/lib.a(lsmod.o)       applets/built-in.o (lsmod_main)
modutils/lib.a(rmmod.o)       applets/built-in.o (rmmod_main)
networking/lib.a(arp.o)       applets/built-in.o (arp_main)
networking/lib.a(ifconfig.o)  applets/built-in.o (ifconfig_main)
networking/lib.a(interface.o)
                              networking/lib.a(arp.o) (get_hwntype)
networking/lib.a(netstat.o)   applets/built-in.o (netstat_main)
networking/lib.a(ping.o)      applets/built-in.o (ping_main)
networking/lib.a(route.o)     networking/lib.a(netstat.o) (bb_displayroutes)
networking/lib.a(telnet.o)    applets/built-in.o (telnet_main)
networking/lib.a(telnetd.o)   applets/built-in.o (telnetd_main)
networking/lib.a(wget.o)      applets/built-in.o (wget_main)
procps/lib.a(free.o)          applets/built-in.o (free_main)
procps/lib.a(kill.o)          applets/built-in.o (kill_main)
procps/lib.a(ps.o)            applets/built-in.o (ps_main)
procps/lib.a(sysctl.o)        applets/built-in.o (sysctl_main)
procps/lib.a(top.o)           applets/built-in.o (top_main)
procps/lib.a(uptime.o)        applets/built-in.o (uptime_main)
shell/lib.a(msh.o)            applets/built-in.o (msh_main)
sysklogd/lib.a(klogd.o)       applets/built-in.o (klogd_main)
sysklogd/lib.a(logger.o)      applets/built-in.o (logger_main)
sysklogd/lib.a(logread.o)     applets/built-in.o (logread_main)
sysklogd/lib.a(syslogd.o)     sysklogd/lib.a(logger.o) (prioritynames)
util-linux/lib.a(dmesg.o)     applets/built-in.o (dmesg_main)
util-linux/lib.a(fdisk.o)     applets/built-in.o (fdisk_main)
util-linux/lib.a(fsck_minix.o)
                              applets/built-in.o (fsck_minix_main)
util-linux/lib.a(mkfs_minix.o)
                              applets/built-in.o (mkfs_minix_main)
util-linux/lib.a(more.o)      applets/built-in.o (more_main)
util-linux/lib.a(mount.o)     applets/built-in.o (mount_main)
util-linux/lib.a(pivot_root.o)
                              applets/built-in.o (pivot_root_main)
util-linux/lib.a(rdate.o)     applets/built-in.o (rdate_main)
util-linux/lib.a(swaponoff.o)
                              applets/built-in.o (swap_on_off_main)
util-linux/lib.a(umount.o)    applets/built-in.o (umount_main)
libbb/lib.a(bb_askpass.o)     loginutils/lib.a(passwd.o) (bb_askpass)
libbb/lib.a(bb_do_delay.o)    loginutils/lib.a(login.o) (bb_do_delay)
libbb/lib.a(change_identity.o)
                              loginutils/lib.a(login.o) (change_identity)
libbb/lib.a(correct_password.o)
                              loginutils/lib.a(login.o) (correct_password)
libbb/lib.a(create_icmp_socket.o)
                              networking/lib.a(ping.o) (create_icmp_socket)
libbb/lib.a(crypt_make_salt.o)
                              loginutils/lib.a(passwd.o) (crypt_make_salt)
libbb/lib.a(device_open.o)    sysklogd/lib.a(syslogd.o) (device_open)
libbb/lib.a(find_pid_by_name.o)
                              procps/lib.a(kill.o) (find_pid_by_name)
libbb/lib.a(herror_msg.o)     util-linux/lib.a(mount.o) (bb_herror_msg)
libbb/lib.a(herror_msg_and_die.o)
                              networking/lib.a(arp.o) (bb_herror_msg_and_die)
libbb/lib.a(inet_common.o)    networking/lib.a(interface.o) (INET6_rresolve)
libbb/lib.a(info_msg.o)       loginutils/lib.a(passwd.o) (bb_info_msg)
libbb/lib.a(kernel_version.o)
                              modutils/lib.a(rmmod.o) (get_linux_version_code)
libbb/lib.a(lineedit.o)       shell/lib.a(msh.o) (new_line_input_t)
libbb/lib.a(login.o)          loginutils/lib.a(getty.o) (print_login_prompt)
libbb/lib.a(loop.o)           util-linux/lib.a(mount.o) (del_loop)
libbb/lib.a(match_fstype.o)   util-linux/lib.a(mount.o) (match_fstype)
libbb/lib.a(obscure.o)        loginutils/lib.a(passwd.o) (obscure)
libbb/lib.a(pidfile.o)        sysklogd/lib.a(syslogd.o) (write_pidfile)
libbb/lib.a(pw_encrypt.o)     loginutils/lib.a(passwd.o) (pw_encrypt)
libbb/lib.a(run_shell.o)      loginutils/lib.a(login.o) (run_shell)
libbb/lib.a(setup_environment.o)
                              loginutils/lib.a(login.o) (setup_environment)
libbb/lib.a(simplify_path.o)  util-linux/lib.a(mount.o) (bb_simplify_path)
libbb/lib.a(speed_table.o)    loginutils/lib.a(getty.o) (tty_value_to_baud)
libbb/lib.a(str_tolower.o)    networking/lib.a(wget.o) (str_tolower)
libbb/lib.a(time.o)           networking/lib.a(wget.o) (monotonic_sec)
libbb/lib.a(trim.o)           procps/lib.a(sysctl.o) (trim)
libbb/lib.a(u_signal_names.o)
                              procps/lib.a(kill.o) (get_signame)
libbb/lib.a(update_passwd.o)  loginutils/lib.a(passwd.o) (update_passwd)
libbb/lib.a(uuencode.o)       networking/lib.a(wget.o) (bb_uuencode)
libbb/lib.a(xconnect.o)       networking/lib.a(wget.o) (set_nport)
libbb/lib.a(xgethostbyname.o)
                              networking/lib.a(ping.o) (xgethostbyname)
/projects/hnd/tools/linux/hndtools-mipsel-linux-uclibc-4.2.3/lib/gcc/mipsel-linux-uclibc/4.2.3/libgcc.a(_divdi3.o)
                              util-linux/lib.a(fdisk.o) (__divdi3)
/projects/hnd/tools/linux/hndtools-mipsel-linux-uclibc-4.2.3/lib/gcc/mipsel-linux-uclibc/4.2.3/libgcc.a(_udivdi3.o)
                              coreutils/lib.a(df.o) (__udivdi3)
/projects/hnd/tools/linux/hndtools-mipsel-linux-uclibc-4.2.3/lib/gcc/mipsel-linux-uclibc/4.2.3/libgcc.a(_umoddi3.o)
                              libbb/lib.a(inode_hash.o) (__umoddi3)
/projects/hnd/tools/linux/hndtools-mipsel-linux-uclibc-4.2.3/lib/gcc/mipsel-linux-uclibc/4.2.3/libgcc.a(_clz.o)
                              /projects/hnd/tools/linux/hndtools-mipsel-linux-uclibc-4.2.3/lib/gcc/mipsel-linux-uclibc/4.2.3/libgcc.a(_divdi3.o) (__clz_tab)
/projects/hnd/tools/linux/hndtools-mipsel-linux-uclibc-4.2.3/lib/uclibc_nonshared.a(atexit.os)
                              procps/lib.a(top.o) (atexit)

Allocating common symbols
Common symbol       size              file

opt_complementary   0x4               libbb/lib.a(getopt32.o)
bb_common_bufsiz1   0x1001            libbb/lib.a(messages.o)
const_int_0         0x4               libbb/lib.a(messages.o)
hostent             0x4               networking/lib.a(ping.o)
option_mask32       0x4               libbb/lib.a(getopt32.o)
die_sleep           0x4               libbb/lib.a(error_msg_and_die.o)
passwords           0x80              loginutils/lib.a(adduser.o)
applet_long_options
                    0x4               libbb/lib.a(getopt32.o)
current_applet      0x4               applets/built-in.o
applet_name         0x4               applets/built-in.o
wrote_pidfile       0x1               libbb/lib.a(pidfile.o)
interface_opt_a     0x1               networking/lib.a(interface.o)

Discarded input sections

 .data          0x0000000000000000        0x0 /projects/hnd/tools/linux/hndtools-mipsel-linux-uclibc-4.2.3/lib/gcc/mipsel-linux-uclibc/4.2.3/../../../../mipsel-linux-uclibc/lib/crt1.o
 .bss           0x0000000000000000        0x0 /projects/hnd/tools/linux/hndtools-mipsel-linux-uclibc-4.2.3/lib/gcc/mipsel-linux-uclibc/4.2.3/../../../../mipsel-linux-uclibc/lib/crt1.o
 .reginfo       0x0000000000000000        0x0 /projects/hnd/tools/linux/hndtools-mipsel-linux-uclibc-4.2.3/lib/gcc/mipsel-linux-uclibc/4.2.3/../../../../mipsel-linux-uclibc/lib/crt1.o
 .text          0x0000000000000000        0x0 /projects/hnd/tools/linux/hndtools-mipsel-linux-uclibc-4.2.3/lib/gcc/mipsel-linux-uclibc/4.2.3/../../../../mipsel-linux-uclibc/lib/crti.o
 .data          0x0000000000000000        0x0 /projects/hnd/tools/linux/hndtools-mipsel-linux-uclibc-4.2.3/lib/gcc/mipsel-linux-uclibc/4.2.3/../../../../mipsel-linux-uclibc/lib/crti.o
 .bss           0x0000000000000000        0x0 /projects/hnd/tools/linux/hndtools-mipsel-linux-uclibc-4.2.3/lib/gcc/mipsel-linux-uclibc/4.2.3/../../../../mipsel-linux-uclibc/lib/crti.o
 .reginfo       0x0000000000000000        0x0 /projects/hnd/tools/linux/hndtools-mipsel-linux-uclibc-4.2.3/lib/gcc/mipsel-linux-uclibc/4.2.3/../../../../mipsel-linux-uclibc/lib/crti.o
 .pdr           0x0000000000000000        0x0 /projects/hnd/tools/linux/hndtools-mipsel-linux-uclibc-4.2.3/lib/gcc/mipsel-linux-uclibc/4.2.3/../../../../mipsel-linux-uclibc/lib/crti.o
 .data          0x0000000000000000        0x0 /projects/hnd/tools/linux/hndtools-mipsel-linux-uclibc-4.2.3/lib/gcc/mipsel-linux-uclibc/4.2.3/crtbegin.o
 .reginfo       0x0000000000000000        0x0 /projects/hnd/tools/linux/hndtools-mipsel-linux-uclibc-4.2.3/lib/gcc/mipsel-linux-uclibc/4.2.3/crtbegin.o
 .reginfo       0x0000000000000000        0x0 applets/built-in.o
 .text          0x0000000000000000        0x0 applets/built-in.o
 .sbss          0x0000000000000000        0x0 applets/built-in.o
 .bss           0x0000000000000000        0x0 applets/built-in.o
 .pdr           0x0000000000000000        0x0 applets/built-in.o
 .text          0x0000000000000000        0x0 archival/libunarchive/lib.a(decompress_bunzip2.o)
 .data          0x0000000000000000        0x0 archival/libunarchive/lib.a(decompress_bunzip2.o)
 .bss           0x0000000000000000        0x0 archival/libunarchive/lib.a(decompress_bunzip2.o)
 .reginfo       0x0000000000000000        0x0 archival/libunarchive/lib.a(decompress_bunzip2.o)
 .pdr           0x0000000000000000        0x0 archival/libunarchive/lib.a(decompress_bunzip2.o)
 .rodata.str1.4
                0x0000000000000000        0x0 archival/libunarchive/lib.a(decompress_bunzip2.o)
 .text.unpack_bz2_stream
                0x0000000000000000        0x0 archival/libunarchive/lib.a(decompress_bunzip2.o)
 .text          0x0000000000000000        0x0 console-tools/lib.a(clear.o)
 .data          0x0000000000000000        0x0 console-tools/lib.a(clear.o)
 .bss           0x0000000000000000        0x0 console-tools/lib.a(clear.o)
 .reginfo       0x0000000000000000        0x0 console-tools/lib.a(clear.o)
 .pdr           0x0000000000000000        0x0 console-tools/lib.a(clear.o)
 .text          0x0000000000000000        0x0 console-tools/lib.a(reset.o)
 .data          0x0000000000000000        0x0 console-tools/lib.a(reset.o)
 .bss           0x0000000000000000        0x0 console-tools/lib.a(reset.o)
 .reginfo       0x0000000000000000        0x0 console-tools/lib.a(reset.o)
 .pdr           0x0000000000000000        0x0 console-tools/lib.a(reset.o)
 .text          0x0000000000000000        0x0 coreutils/lib.a(basename.o)
 .data          0x0000000000000000        0x0 coreutils/lib.a(basename.o)
 .bss           0x0000000000000000        0x0 coreutils/lib.a(basename.o)
 .reginfo       0x0000000000000000        0x0 coreutils/lib.a(basename.o)
 .pdr           0x0000000000000000        0x0 coreutils/lib.a(basename.o)
 .text          0x0000000000000000        0x0 coreutils/lib.a(cat.o)
 .data          0x0000000000000000        0x0 coreutils/lib.a(cat.o)
 .bss           0x0000000000000000        0x0 coreutils/lib.a(cat.o)
 .reginfo       0x0000000000000000        0x0 coreutils/lib.a(cat.o)
 .pdr           0x0000000000000000        0x0 coreutils/lib.a(cat.o)
 .text          0x0000000000000000        0x0 coreutils/lib.a(chgrp.o)
 .data          0x0000000000000000        0x0 coreutils/lib.a(chgrp.o)
 .bss           0x0000000000000000        0x0 coreutils/lib.a(chgrp.o)
 .reginfo       0x0000000000000000        0x0 coreutils/lib.a(chgrp.o)
 .pdr           0x0000000000000000        0x0 coreutils/lib.a(chgrp.o)
 .text          0x0000000000000000        0x0 coreutils/lib.a(chmod.o)
 .data          0x0000000000000000        0x0 coreutils/lib.a(chmod.o)
 .bss           0x0000000000000000        0x0 coreutils/lib.a(chmod.o)
 .reginfo       0x0000000000000000        0x0 coreutils/lib.a(chmod.o)
 .pdr           0x0000000000000000        0x0 coreutils/lib.a(chmod.o)
 .text          0x0000000000000000        0x0 coreutils/lib.a(chown.o)
 .data          0x0000000000000000        0x0 coreutils/lib.a(chown.o)
 .bss           0x0000000000000000        0x0 coreutils/lib.a(chown.o)
 .reginfo       0x0000000000000000        0x0 coreutils/lib.a(chown.o)
 .pdr           0x0000000000000000        0x0 coreutils/lib.a(chown.o)
 .text          0x0000000000000000        0x0 coreutils/lib.a(cp.o)
 .data          0x0000000000000000        0x0 coreutils/lib.a(cp.o)
 .bss           0x0000000000000000        0x0 coreutils/lib.a(cp.o)
 .reginfo       0x0000000000000000        0x0 coreutils/lib.a(cp.o)
 .pdr           0x0000000000000000        0x0 coreutils/lib.a(cp.o)
 .text          0x0000000000000000        0x0 coreutils/lib.a(cut.o)
 .data          0x0000000000000000        0x0 coreutils/lib.a(cut.o)
 .bss           0x0000000000000000        0x0 coreutils/lib.a(cut.o)
 .reginfo       0x0000000000000000        0x0 coreutils/lib.a(cut.o)
 .pdr           0x0000000000000000        0x0 coreutils/lib.a(cut.o)
 .text          0x0000000000000000        0x0 coreutils/lib.a(df.o)
 .data          0x0000000000000000        0x0 coreutils/lib.a(df.o)
 .bss           0x0000000000000000        0x0 coreutils/lib.a(df.o)
 .reginfo       0x0000000000000000        0x0 coreutils/lib.a(df.o)
 .pdr           0x0000000000000000        0x0 coreutils/lib.a(df.o)
 .text          0x0000000000000000        0x0 coreutils/lib.a(dirname.o)
 .data          0x0000000000000000        0x0 coreutils/lib.a(dirname.o)
 .bss           0x0000000000000000        0x0 coreutils/lib.a(dirname.o)
 .reginfo       0x0000000000000000        0x0 coreutils/lib.a(dirname.o)
 .pdr           0x0000000000000000        0x0 coreutils/lib.a(dirname.o)
 .text          0x0000000000000000        0x0 coreutils/lib.a(du.o)
 .data          0x0000000000000000        0x0 coreutils/lib.a(du.o)
 .bss           0x0000000000000000        0x0 coreutils/lib.a(du.o)
 .reginfo       0x0000000000000000        0x0 coreutils/lib.a(du.o)
 .pdr           0x0000000000000000        0x0 coreutils/lib.a(du.o)
 .text          0x0000000000000000        0x0 coreutils/lib.a(echo.o)
 .data          0x0000000000000000        0x0 coreutils/lib.a(echo.o)
 .bss           0x0000000000000000        0x0 coreutils/lib.a(echo.o)
 .reginfo       0x0000000000000000        0x0 coreutils/lib.a(echo.o)
 .pdr           0x0000000000000000        0x0 coreutils/lib.a(echo.o)
 .text          0x0000000000000000        0x0 coreutils/lib.a(env.o)
 .data          0x0000000000000000        0x0 coreutils/lib.a(env.o)
 .bss           0x0000000000000000        0x0 coreutils/lib.a(env.o)
 .reginfo       0x0000000000000000        0x0 coreutils/lib.a(env.o)
 .pdr           0x0000000000000000        0x0 coreutils/lib.a(env.o)
 .text          0x0000000000000000        0x0 coreutils/lib.a(expr.o)
 .data          0x0000000000000000        0x0 coreutils/lib.a(expr.o)
 .bss           0x0000000000000000        0x0 coreutils/lib.a(expr.o)
 .reginfo       0x0000000000000000        0x0 coreutils/lib.a(expr.o)
 .pdr           0x0000000000000000        0x0 coreutils/lib.a(expr.o)
 .text          0x0000000000000000        0x0 coreutils/lib.a(false.o)
 .data          0x0000000000000000        0x0 coreutils/lib.a(false.o)
 .bss           0x0000000000000000        0x0 coreutils/lib.a(false.o)
 .reginfo       0x0000000000000000        0x0 coreutils/lib.a(false.o)
 .pdr           0x0000000000000000        0x0 coreutils/lib.a(false.o)
 .text          0x0000000000000000        0x0 coreutils/lib.a(head.o)
 .data          0x0000000000000000        0x0 coreutils/lib.a(head.o)
 .bss           0x0000000000000000        0x0 coreutils/lib.a(head.o)
 .reginfo       0x0000000000000000        0x0 coreutils/lib.a(head.o)
 .pdr           0x0000000000000000        0x0 coreutils/lib.a(head.o)
 .text          0x0000000000000000        0x0 coreutils/lib.a(hostid.o)
 .data          0x0000000000000000        0x0 coreutils/lib.a(hostid.o)
 .bss           0x0000000000000000        0x0 coreutils/lib.a(hostid.o)
 .reginfo       0x0000000000000000        0x0 coreutils/lib.a(hostid.o)
 .pdr           0x0000000000000000        0x0 coreutils/lib.a(hostid.o)
 .text          0x0000000000000000        0x0 coreutils/lib.a(id.o)
 .data          0x0000000000000000        0x0 coreutils/lib.a(id.o)
 .bss           0x0000000000000000        0x0 coreutils/lib.a(id.o)
 .reginfo       0x0000000000000000        0x0 coreutils/lib.a(id.o)
 .pdr           0x0000000000000000        0x0 coreutils/lib.a(id.o)
 .text          0x0000000000000000        0x0 coreutils/lib.a(ln.o)
 .data          0x0000000000000000        0x0 coreutils/lib.a(ln.o)
 .bss           0x0000000000000000        0x0 coreutils/lib.a(ln.o)
 .reginfo       0x0000000000000000        0x0 coreutils/lib.a(ln.o)
 .pdr           0x0000000000000000        0x0 coreutils/lib.a(ln.o)
 .text          0x0000000000000000        0x0 coreutils/lib.a(ls.o)
 .data          0x0000000000000000        0x0 coreutils/lib.a(ls.o)
 .bss           0x0000000000000000        0x0 coreutils/lib.a(ls.o)
 .reginfo       0x0000000000000000        0x0 coreutils/lib.a(ls.o)
 .pdr           0x0000000000000000        0x0 coreutils/lib.a(ls.o)
 .text          0x0000000000000000        0x0 coreutils/lib.a(mkdir.o)
 .data          0x0000000000000000        0x0 coreutils/lib.a(mkdir.o)
 .bss           0x0000000000000000        0x0 coreutils/lib.a(mkdir.o)
 .reginfo       0x0000000000000000        0x0 coreutils/lib.a(mkdir.o)
 .pdr           0x0000000000000000        0x0 coreutils/lib.a(mkdir.o)
 .text          0x0000000000000000        0x0 coreutils/lib.a(mkfifo.o)
 .data          0x0000000000000000        0x0 coreutils/lib.a(mkfifo.o)
 .bss           0x0000000000000000        0x0 coreutils/lib.a(mkfifo.o)
 .reginfo       0x0000000000000000        0x0 coreutils/lib.a(mkfifo.o)
 .pdr           0x0000000000000000        0x0 coreutils/lib.a(mkfifo.o)
 .text          0x0000000000000000        0x0 coreutils/lib.a(mknod.o)
 .data          0x0000000000000000        0x0 coreutils/lib.a(mknod.o)
 .bss           0x0000000000000000        0x0 coreutils/lib.a(mknod.o)
 .reginfo       0x0000000000000000        0x0 coreutils/lib.a(mknod.o)
 .pdr           0x0000000000000000        0x0 coreutils/lib.a(mknod.o)
 .text          0x0000000000000000        0x0 coreutils/lib.a(mv.o)
 .data          0x0000000000000000        0x0 coreutils/lib.a(mv.o)
 .bss           0x0000000000000000        0x0 coreutils/lib.a(mv.o)
 .reginfo       0x0000000000000000        0x0 coreutils/lib.a(mv.o)
 .pdr           0x0000000000000000        0x0 coreutils/lib.a(mv.o)
 .text          0x0000000000000000        0x0 coreutils/lib.a(printf.o)
 .data          0x0000000000000000        0x0 coreutils/lib.a(printf.o)
 .bss           0x0000000000000000        0x0 coreutils/lib.a(printf.o)
 .reginfo       0x0000000000000000        0x0 coreutils/lib.a(printf.o)
 .pdr           0x0000000000000000        0x0 coreutils/lib.a(printf.o)
 .text          0x0000000000000000        0x0 coreutils/lib.a(pwd.o)
 .data          0x0000000000000000        0x0 coreutils/lib.a(pwd.o)
 .bss           0x0000000000000000        0x0 coreutils/lib.a(pwd.o)
 .reginfo       0x0000000000000000        0x0 coreutils/lib.a(pwd.o)
 .pdr           0x0000000000000000        0x0 coreutils/lib.a(pwd.o)
 .text          0x0000000000000000        0x0 coreutils/lib.a(rm.o)
 .data          0x0000000000000000        0x0 coreutils/lib.a(rm.o)
 .bss           0x0000000000000000        0x0 coreutils/lib.a(rm.o)
 .reginfo       0x0000000000000000        0x0 coreutils/lib.a(rm.o)
 .pdr           0x0000000000000000        0x0 coreutils/lib.a(rm.o)
 .text          0x0000000000000000        0x0 coreutils/lib.a(rmdir.o)
 .data          0x0000000000000000        0x0 coreutils/lib.a(rmdir.o)
 .bss           0x0000000000000000        0x0 coreutils/lib.a(rmdir.o)
 .reginfo       0x0000000000000000        0x0 coreutils/lib.a(rmdir.o)
 .pdr           0x0000000000000000        0x0 coreutils/lib.a(rmdir.o)
 .text          0x0000000000000000        0x0 coreutils/lib.a(sleep.o)
 .data          0x0000000000000000        0x0 coreutils/lib.a(sleep.o)
 .bss           0x0000000000000000        0x0 coreutils/lib.a(sleep.o)
 .reginfo       0x0000000000000000        0x0 coreutils/lib.a(sleep.o)
 .pdr           0x0000000000000000        0x0 coreutils/lib.a(sleep.o)
 .text          0x0000000000000000        0x0 coreutils/lib.a(tail.o)
 .data          0x0000000000000000        0x0 coreutils/lib.a(tail.o)
 .bss           0x0000000000000000        0x0 coreutils/lib.a(tail.o)
 .reginfo       0x0000000000000000        0x0 coreutils/lib.a(tail.o)
 .pdr           0x0000000000000000        0x0 coreutils/lib.a(tail.o)
 .text          0x0000000000000000        0x0 coreutils/lib.a(test.o)
 .data          0x0000000000000000        0x0 coreutils/lib.a(test.o)
 .bss           0x0000000000000000        0x0 coreutils/lib.a(test.o)
 .reginfo       0x0000000000000000        0x0 coreutils/lib.a(test.o)
 .pdr           0x0000000000000000        0x0 coreutils/lib.a(test.o)
 .text          0x0000000000000000        0x0 coreutils/lib.a(touch.o)
 .data          0x0000000000000000        0x0 coreutils/lib.a(touch.o)
 .bss           0x0000000000000000        0x0 coreutils/lib.a(touch.o)
 .reginfo       0x0000000000000000        0x0 coreutils/lib.a(touch.o)
 .pdr           0x0000000000000000        0x0 coreutils/lib.a(touch.o)
 .text          0x0000000000000000        0x0 coreutils/lib.a(true.o)
 .data          0x0000000000000000        0x0 coreutils/lib.a(true.o)
 .bss           0x0000000000000000        0x0 coreutils/lib.a(true.o)
 .reginfo       0x0000000000000000        0x0 coreutils/lib.a(true.o)
 .pdr           0x0000000000000000        0x0 coreutils/lib.a(true.o)
 .text          0x0000000000000000        0x0 coreutils/lib.a(uname.o)
 .data          0x0000000000000000        0x0 coreutils/lib.a(uname.o)
 .bss           0x0000000000000000        0x0 coreutils/lib.a(uname.o)
 .reginfo       0x0000000000000000        0x0 coreutils/lib.a(uname.o)
 .pdr           0x0000000000000000        0x0 coreutils/lib.a(uname.o)
 .text          0x0000000000000000        0x0 coreutils/lib.a(usleep.o)
 .data          0x0000000000000000        0x0 coreutils/lib.a(usleep.o)
 .bss           0x0000000000000000        0x0 coreutils/lib.a(usleep.o)
 .reginfo       0x0000000000000000        0x0 coreutils/lib.a(usleep.o)
 .pdr           0x0000000000000000        0x0 coreutils/lib.a(usleep.o)
 .text          0x0000000000000000        0x0 coreutils/lib.a(yes.o)
 .data          0x0000000000000000        0x0 coreutils/lib.a(yes.o)
 .bss           0x0000000000000000        0x0 coreutils/lib.a(yes.o)
 .reginfo       0x0000000000000000        0x0 coreutils/lib.a(yes.o)
 .pdr           0x0000000000000000        0x0 coreutils/lib.a(yes.o)
 .text          0x0000000000000000        0x0 coreutils/libcoreutils/lib.a(cp_mv_stat.o)
 .data          0x0000000000000000        0x0 coreutils/libcoreutils/lib.a(cp_mv_stat.o)
 .bss           0x0000000000000000        0x0 coreutils/libcoreutils/lib.a(cp_mv_stat.o)
 .reginfo       0x0000000000000000        0x0 coreutils/libcoreutils/lib.a(cp_mv_stat.o)
 .pdr           0x0000000000000000        0x0 coreutils/libcoreutils/lib.a(cp_mv_stat.o)
 .text          0x0000000000000000        0x0 coreutils/libcoreutils/lib.a(getopt_mk_fifo_nod.o)
 .data          0x0000000000000000        0x0 coreutils/libcoreutils/lib.a(getopt_mk_fifo_nod.o)
 .bss           0x0000000000000000        0x0 coreutils/libcoreutils/lib.a(getopt_mk_fifo_nod.o)
 .reginfo       0x0000000000000000        0x0 coreutils/libcoreutils/lib.a(getopt_mk_fifo_nod.o)
 .pdr           0x0000000000000000        0x0 coreutils/libcoreutils/lib.a(getopt_mk_fifo_nod.o)
 .text          0x0000000000000000        0x0 findutils/lib.a(find.o)
 .data          0x0000000000000000        0x0 findutils/lib.a(find.o)
 .bss           0x0000000000000000        0x0 findutils/lib.a(find.o)
 .reginfo       0x0000000000000000        0x0 findutils/lib.a(find.o)
 .pdr           0x0000000000000000        0x0 findutils/lib.a(find.o)
 .text          0x0000000000000000        0x0 findutils/lib.a(grep.o)
 .data          0x0000000000000000        0x0 findutils/lib.a(grep.o)
 .bss           0x0000000000000000        0x0 findutils/lib.a(grep.o)
 .reginfo       0x0000000000000000        0x0 findutils/lib.a(grep.o)
 .pdr           0x0000000000000000        0x0 findutils/lib.a(grep.o)
 .text          0x0000000000000000        0x0 findutils/lib.a(xargs.o)
 .data          0x0000000000000000        0x0 findutils/lib.a(xargs.o)
 .bss           0x0000000000000000        0x0 findutils/lib.a(xargs.o)
 .reginfo       0x0000000000000000        0x0 findutils/lib.a(xargs.o)
 .pdr           0x0000000000000000        0x0 findutils/lib.a(xargs.o)
 .text          0x0000000000000000        0x0 init/lib.a(halt.o)
 .data          0x0000000000000000        0x0 init/lib.a(halt.o)
 .bss           0x0000000000000000        0x0 init/lib.a(halt.o)
 .reginfo       0x0000000000000000        0x0 init/lib.a(halt.o)
 .pdr           0x0000000000000000        0x0 init/lib.a(halt.o)
 .text          0x0000000000000000        0x0 libbb/lib.a(ask_confirmation.o)
 .data          0x0000000000000000        0x0 libbb/lib.a(ask_confirmation.o)
 .bss           0x0000000000000000        0x0 libbb/lib.a(ask_confirmation.o)
 .reginfo       0x0000000000000000        0x0 libbb/lib.a(ask_confirmation.o)
 .pdr           0x0000000000000000        0x0 libbb/lib.a(ask_confirmation.o)
 .text          0x0000000000000000        0x0 libbb/lib.a(bb_basename.o)
 .data          0x0000000000000000        0x0 libbb/lib.a(bb_basename.o)
 .bss           0x0000000000000000        0x0 libbb/lib.a(bb_basename.o)
 .reginfo       0x0000000000000000        0x0 libbb/lib.a(bb_basename.o)
 .pdr           0x0000000000000000        0x0 libbb/lib.a(bb_basename.o)
 .text          0x0000000000000000        0x0 libbb/lib.a(bb_pwd.o)
 .data          0x0000000000000000        0x0 libbb/lib.a(bb_pwd.o)
 .bss           0x0000000000000000        0x0 libbb/lib.a(bb_pwd.o)
 .reginfo       0x0000000000000000        0x0 libbb/lib.a(bb_pwd.o)
 .pdr           0x0000000000000000        0x0 libbb/lib.a(bb_pwd.o)
 .text          0x0000000000000000        0x0 libbb/lib.a(bb_strtonum.o)
 .data          0x0000000000000000        0x0 libbb/lib.a(bb_strtonum.o)
 .bss           0x0000000000000000        0x0 libbb/lib.a(bb_strtonum.o)
 .reginfo       0x0000000000000000        0x0 libbb/lib.a(bb_strtonum.o)
 .pdr           0x0000000000000000        0x0 libbb/lib.a(bb_strtonum.o)
 .text.bb_strtoll
                0x0000000000000000        0x0 libbb/lib.a(bb_strtonum.o)
 .text          0x0000000000000000        0x0 libbb/lib.a(compare_string_array.o)
 .data          0x0000000000000000        0x0 libbb/lib.a(compare_string_array.o)
 .bss           0x0000000000000000        0x0 libbb/lib.a(compare_string_array.o)
 .reginfo       0x0000000000000000        0x0 libbb/lib.a(compare_string_array.o)
 .pdr           0x0000000000000000        0x0 libbb/lib.a(compare_string_array.o)
 .text.index_in_substrings
                0x0000000000000000        0x0 libbb/lib.a(compare_string_array.o)
 .text.index_in_str_array
                0x0000000000000000        0x0 libbb/lib.a(compare_string_array.o)
 .text          0x0000000000000000        0x0 libbb/lib.a(concat_path_file.o)
 .data          0x0000000000000000        0x0 libbb/lib.a(concat_path_file.o)
 .bss           0x0000000000000000        0x0 libbb/lib.a(concat_path_file.o)
 .reginfo       0x0000000000000000        0x0 libbb/lib.a(concat_path_file.o)
 .pdr           0x0000000000000000        0x0 libbb/lib.a(concat_path_file.o)
 .text          0x0000000000000000        0x0 libbb/lib.a(concat_subpath_file.o)
 .data          0x0000000000000000        0x0 libbb/lib.a(concat_subpath_file.o)
 .bss           0x0000000000000000        0x0 libbb/lib.a(concat_subpath_file.o)
 .reginfo       0x0000000000000000        0x0 libbb/lib.a(concat_subpath_file.o)
 .pdr           0x0000000000000000        0x0 libbb/lib.a(concat_subpath_file.o)
 .text          0x0000000000000000        0x0 libbb/lib.a(copy_file.o)
 .data          0x0000000000000000        0x0 libbb/lib.a(copy_file.o)
 .bss           0x0000000000000000        0x0 libbb/lib.a(copy_file.o)
 .reginfo       0x0000000000000000        0x0 libbb/lib.a(copy_file.o)
 .pdr           0x0000000000000000        0x0 libbb/lib.a(copy_file.o)
 .text          0x0000000000000000        0x0 libbb/lib.a(copyfd.o)
 .data          0x0000000000000000        0x0 libbb/lib.a(copyfd.o)
 .bss           0x0000000000000000        0x0 libbb/lib.a(copyfd.o)
 .reginfo       0x0000000000000000        0x0 libbb/lib.a(copyfd.o)
 .pdr           0x0000000000000000        0x0 libbb/lib.a(copyfd.o)
 .text.bb_copyfd_size
                0x0000000000000000        0x0 libbb/lib.a(copyfd.o)
 .rodata.str1.4
                0x0000000000000000        0x0 libbb/lib.a(copyfd.o)
 .text.bb_copyfd_exact_size
                0x0000000000000000        0x0 libbb/lib.a(copyfd.o)
 .text          0x0000000000000000        0x0 libbb/lib.a(crc32.o)
 .data          0x0000000000000000        0x0 libbb/lib.a(crc32.o)
 .bss           0x0000000000000000        0x0 libbb/lib.a(crc32.o)
 .reginfo       0x0000000000000000        0x0 libbb/lib.a(crc32.o)
 .pdr           0x0000000000000000        0x0 libbb/lib.a(crc32.o)
 .text          0x0000000000000000        0x0 libbb/lib.a(default_error_retval.o)
 .data          0x0000000000000000        0x0 libbb/lib.a(default_error_retval.o)
 .bss           0x0000000000000000        0x0 libbb/lib.a(default_error_retval.o)
 .reginfo       0x0000000000000000        0x0 libbb/lib.a(default_error_retval.o)
 .text          0x0000000000000000        0x0 libbb/lib.a(error_msg.o)
 .data          0x0000000000000000        0x0 libbb/lib.a(error_msg.o)
 .bss           0x0000000000000000        0x0 libbb/lib.a(error_msg.o)
 .reginfo       0x0000000000000000        0x0 libbb/lib.a(error_msg.o)
 .pdr           0x0000000000000000        0x0 libbb/lib.a(error_msg.o)
 .text          0x0000000000000000        0x0 libbb/lib.a(error_msg_and_die.o)
 .data          0x0000000000000000        0x0 libbb/lib.a(error_msg_and_die.o)
 .bss           0x0000000000000000        0x0 libbb/lib.a(error_msg_and_die.o)
 .reginfo       0x0000000000000000        0x0 libbb/lib.a(error_msg_and_die.o)
 .pdr           0x0000000000000000        0x0 libbb/lib.a(error_msg_and_die.o)
 .text          0x0000000000000000        0x0 libbb/lib.a(fclose_nonstdin.o)
 .data          0x0000000000000000        0x0 libbb/lib.a(fclose_nonstdin.o)
 .bss           0x0000000000000000        0x0 libbb/lib.a(fclose_nonstdin.o)
 .reginfo       0x0000000000000000        0x0 libbb/lib.a(fclose_nonstdin.o)
 .pdr           0x0000000000000000        0x0 libbb/lib.a(fclose_nonstdin.o)
 .text          0x0000000000000000        0x0 libbb/lib.a(fflush_stdout_and_exit.o)
 .data          0x0000000000000000        0x0 libbb/lib.a(fflush_stdout_and_exit.o)
 .bss           0x0000000000000000        0x0 libbb/lib.a(fflush_stdout_and_exit.o)
 .reginfo       0x0000000000000000        0x0 libbb/lib.a(fflush_stdout_and_exit.o)
 .pdr           0x0000000000000000        0x0 libbb/lib.a(fflush_stdout_and_exit.o)
 .text          0x0000000000000000        0x0 libbb/lib.a(find_mount_point.o)
 .data          0x0000000000000000        0x0 libbb/lib.a(find_mount_point.o)
 .bss           0x0000000000000000        0x0 libbb/lib.a(find_mount_point.o)
 .reginfo       0x0000000000000000        0x0 libbb/lib.a(find_mount_point.o)
 .pdr           0x0000000000000000        0x0 libbb/lib.a(find_mount_point.o)
 .text          0x0000000000000000        0x0 libbb/lib.a(find_root_device.o)
 .data          0x0000000000000000        0x0 libbb/lib.a(find_root_device.o)
 .bss           0x0000000000000000        0x0 libbb/lib.a(find_root_device.o)
 .reginfo       0x0000000000000000        0x0 libbb/lib.a(find_root_device.o)
 .pdr           0x0000000000000000        0x0 libbb/lib.a(find_root_device.o)
 .text          0x0000000000000000        0x0 libbb/lib.a(full_write.o)
 .data          0x0000000000000000        0x0 libbb/lib.a(full_write.o)
 .bss           0x0000000000000000        0x0 libbb/lib.a(full_write.o)
 .reginfo       0x0000000000000000        0x0 libbb/lib.a(full_write.o)
 .pdr           0x0000000000000000        0x0 libbb/lib.a(full_write.o)
 .text          0x0000000000000000        0x0 libbb/lib.a(get_last_path_component.o)
 .data          0x0000000000000000        0x0 libbb/lib.a(get_last_path_component.o)
 .bss           0x0000000000000000        0x0 libbb/lib.a(get_last_path_component.o)
 .reginfo       0x0000000000000000        0x0 libbb/lib.a(get_last_path_component.o)
 .pdr           0x0000000000000000        0x0 libbb/lib.a(get_last_path_component.o)
 .text          0x0000000000000000        0x0 libbb/lib.a(get_line_from_file.o)
 .data          0x0000000000000000        0x0 libbb/lib.a(get_line_from_file.o)
 .bss           0x0000000000000000        0x0 libbb/lib.a(get_line_from_file.o)
 .reginfo       0x0000000000000000        0x0 libbb/lib.a(get_line_from_file.o)
 .pdr           0x0000000000000000        0x0 libbb/lib.a(get_line_from_file.o)
 .text          0x0000000000000000        0x0 libbb/lib.a(getopt32.o)
 .data          0x0000000000000000        0x0 libbb/lib.a(getopt32.o)
 .bss           0x0000000000000000        0x0 libbb/lib.a(getopt32.o)
 .reginfo       0x0000000000000000        0x0 libbb/lib.a(getopt32.o)
 .pdr           0x0000000000000000        0x0 libbb/lib.a(getopt32.o)
 .text          0x0000000000000000        0x0 libbb/lib.a(human_readable.o)
 .data          0x0000000000000000        0x0 libbb/lib.a(human_readable.o)
 .bss           0x0000000000000000        0x0 libbb/lib.a(human_readable.o)
 .reginfo       0x0000000000000000        0x0 libbb/lib.a(human_readable.o)
 .pdr           0x0000000000000000        0x0 libbb/lib.a(human_readable.o)
 .text          0x0000000000000000        0x0 libbb/lib.a(inode_hash.o)
 .data          0x0000000000000000        0x0 libbb/lib.a(inode_hash.o)
 .bss           0x0000000000000000        0x0 libbb/lib.a(inode_hash.o)
 .reginfo       0x0000000000000000        0x0 libbb/lib.a(inode_hash.o)
 .pdr           0x0000000000000000        0x0 libbb/lib.a(inode_hash.o)
 .text          0x0000000000000000        0x0 libbb/lib.a(isdirectory.o)
 .data          0x0000000000000000        0x0 libbb/lib.a(isdirectory.o)
 .bss           0x0000000000000000        0x0 libbb/lib.a(isdirectory.o)
 .reginfo       0x0000000000000000        0x0 libbb/lib.a(isdirectory.o)
 .pdr           0x0000000000000000        0x0 libbb/lib.a(isdirectory.o)
 .text          0x0000000000000000        0x0 libbb/lib.a(last_char_is.o)
 .data          0x0000000000000000        0x0 libbb/lib.a(last_char_is.o)
 .bss           0x0000000000000000        0x0 libbb/lib.a(last_char_is.o)
 .reginfo       0x0000000000000000        0x0 libbb/lib.a(last_char_is.o)
 .pdr           0x0000000000000000        0x0 libbb/lib.a(last_char_is.o)
 .text          0x0000000000000000        0x0 libbb/lib.a(llist.o)
 .data          0x0000000000000000        0x0 libbb/lib.a(llist.o)
 .bss           0x0000000000000000        0x0 libbb/lib.a(llist.o)
 .reginfo       0x0000000000000000        0x0 libbb/lib.a(llist.o)
 .pdr           0x0000000000000000        0x0 libbb/lib.a(llist.o)
 .text.llist_unlink
                0x0000000000000000        0x0 libbb/lib.a(llist.o)
 .text.llist_pop
                0x0000000000000000        0x0 libbb/lib.a(llist.o)
 .text.llist_free
                0x0000000000000000        0x0 libbb/lib.a(llist.o)
 .text          0x0000000000000000        0x0 libbb/lib.a(make_directory.o)
 .data          0x0000000000000000        0x0 libbb/lib.a(make_directory.o)
 .bss           0x0000000000000000        0x0 libbb/lib.a(make_directory.o)
 .reginfo       0x0000000000000000        0x0 libbb/lib.a(make_directory.o)
 .pdr           0x0000000000000000        0x0 libbb/lib.a(make_directory.o)
 .text          0x0000000000000000        0x0 libbb/lib.a(makedev.o)
 .data          0x0000000000000000        0x0 libbb/lib.a(makedev.o)
 .bss           0x0000000000000000        0x0 libbb/lib.a(makedev.o)
 .reginfo       0x0000000000000000        0x0 libbb/lib.a(makedev.o)
 .pdr           0x0000000000000000        0x0 libbb/lib.a(makedev.o)
 .text          0x0000000000000000        0x0 libbb/lib.a(messages.o)
 .bss           0x0000000000000000        0x0 libbb/lib.a(messages.o)
 .reginfo       0x0000000000000000        0x0 libbb/lib.a(messages.o)
 .rodata.bb_msg_invalid_date
                0x0000000000000000        0x0 libbb/lib.a(messages.o)
 .rodata.bb_msg_unknown
                0x0000000000000000        0x0 libbb/lib.a(messages.o)
 .rodata.bb_hexdigits_upcase
                0x0000000000000000        0x0 libbb/lib.a(messages.o)
 .rodata.bb_path_shadow_file
                0x0000000000000000        0x0 libbb/lib.a(messages.o)
 .rodata.bb_path_gshadow_file
                0x0000000000000000        0x0 libbb/lib.a(messages.o)
 .rodata.bb_busybox_exec_path
                0x0000000000000000        0x0 libbb/lib.a(messages.o)
 .rodata.bb_path_wtmp_file
                0x0000000000000000        0x0 libbb/lib.a(messages.o)
 .text          0x0000000000000000        0x0 libbb/lib.a(mode_string.o)
 .data          0x0000000000000000        0x0 libbb/lib.a(mode_string.o)
 .bss           0x0000000000000000        0x0 libbb/lib.a(mode_string.o)
 .reginfo       0x0000000000000000        0x0 libbb/lib.a(mode_string.o)
 .pdr           0x0000000000000000        0x0 libbb/lib.a(mode_string.o)
 .text          0x0000000000000000        0x0 libbb/lib.a(mtab_file.o)
 .data          0x0000000000000000        0x0 libbb/lib.a(mtab_file.o)
 .bss           0x0000000000000000        0x0 libbb/lib.a(mtab_file.o)
 .reginfo       0x0000000000000000        0x0 libbb/lib.a(mtab_file.o)
 .text          0x0000000000000000        0x0 libbb/lib.a(parse_mode.o)
 .data          0x0000000000000000        0x0 libbb/lib.a(parse_mode.o)
 .bss           0x0000000000000000        0x0 libbb/lib.a(parse_mode.o)
 .reginfo       0x0000000000000000        0x0 libbb/lib.a(parse_mode.o)
 .pdr           0x0000000000000000        0x0 libbb/lib.a(parse_mode.o)
 .text          0x0000000000000000        0x0 libbb/lib.a(perror_msg.o)
 .data          0x0000000000000000        0x0 libbb/lib.a(perror_msg.o)
 .bss           0x0000000000000000        0x0 libbb/lib.a(perror_msg.o)
 .reginfo       0x0000000000000000        0x0 libbb/lib.a(perror_msg.o)
 .pdr           0x0000000000000000        0x0 libbb/lib.a(perror_msg.o)
 .text          0x0000000000000000        0x0 libbb/lib.a(perror_msg_and_die.o)
 .data          0x0000000000000000        0x0 libbb/lib.a(perror_msg_and_die.o)
 .bss           0x0000000000000000        0x0 libbb/lib.a(perror_msg_and_die.o)
 .reginfo       0x0000000000000000        0x0 libbb/lib.a(perror_msg_and_die.o)
 .pdr           0x0000000000000000        0x0 libbb/lib.a(perror_msg_and_die.o)
 .text          0x0000000000000000        0x0 libbb/lib.a(perror_nomsg_and_die.o)
 .data          0x0000000000000000        0x0 libbb/lib.a(perror_nomsg_and_die.o)
 .bss           0x0000000000000000        0x0 libbb/lib.a(perror_nomsg_and_die.o)
 .reginfo       0x0000000000000000        0x0 libbb/lib.a(perror_nomsg_and_die.o)
 .pdr           0x0000000000000000        0x0 libbb/lib.a(perror_nomsg_and_die.o)
 .text          0x0000000000000000        0x0 libbb/lib.a(process_escape_sequence.o)
 .data          0x0000000000000000        0x0 libbb/lib.a(process_escape_sequence.o)
 .bss           0x0000000000000000        0x0 libbb/lib.a(process_escape_sequence.o)
 .reginfo       0x0000000000000000        0x0 libbb/lib.a(process_escape_sequence.o)
 .pdr           0x0000000000000000        0x0 libbb/lib.a(process_escape_sequence.o)
 .text          0x0000000000000000        0x0 libbb/lib.a(procps.o)
 .data          0x0000000000000000        0x0 libbb/lib.a(procps.o)
 .bss           0x0000000000000000        0x0 libbb/lib.a(procps.o)
 .reginfo       0x0000000000000000        0x0 libbb/lib.a(procps.o)
 .pdr           0x0000000000000000        0x0 libbb/lib.a(procps.o)
 .text          0x0000000000000000        0x0 libbb/lib.a(read.o)
 .data          0x0000000000000000        0x0 libbb/lib.a(read.o)
 .bss           0x0000000000000000        0x0 libbb/lib.a(read.o)
 .reginfo       0x0000000000000000        0x0 libbb/lib.a(read.o)
 .pdr           0x0000000000000000        0x0 libbb/lib.a(read.o)
 .text.xmalloc_reads
                0x0000000000000000        0x0 libbb/lib.a(read.o)
 .text.reads    0x0000000000000000        0x0 libbb/lib.a(read.o)
 .text.xread    0x0000000000000000        0x0 libbb/lib.a(read.o)
 .text.xread_char
                0x0000000000000000        0x0 libbb/lib.a(read.o)
 .text          0x0000000000000000        0x0 libbb/lib.a(recursive_action.o)
 .data          0x0000000000000000        0x0 libbb/lib.a(recursive_action.o)
 .bss           0x0000000000000000        0x0 libbb/lib.a(recursive_action.o)
 .reginfo       0x0000000000000000        0x0 libbb/lib.a(recursive_action.o)
 .pdr           0x0000000000000000        0x0 libbb/lib.a(recursive_action.o)
 .text          0x0000000000000000        0x0 libbb/lib.a(remove_file.o)
 .data          0x0000000000000000        0x0 libbb/lib.a(remove_file.o)
 .bss           0x0000000000000000        0x0 libbb/lib.a(remove_file.o)
 .reginfo       0x0000000000000000        0x0 libbb/lib.a(remove_file.o)
 .pdr           0x0000000000000000        0x0 libbb/lib.a(remove_file.o)
 .text          0x0000000000000000        0x0 libbb/lib.a(safe_strncpy.o)
 .data          0x0000000000000000        0x0 libbb/lib.a(safe_strncpy.o)
 .bss           0x0000000000000000        0x0 libbb/lib.a(safe_strncpy.o)
 .reginfo       0x0000000000000000        0x0 libbb/lib.a(safe_strncpy.o)
 .pdr           0x0000000000000000        0x0 libbb/lib.a(safe_strncpy.o)
 .text          0x0000000000000000        0x0 libbb/lib.a(safe_write.o)
 .data          0x0000000000000000        0x0 libbb/lib.a(safe_write.o)
 .bss           0x0000000000000000        0x0 libbb/lib.a(safe_write.o)
 .reginfo       0x0000000000000000        0x0 libbb/lib.a(safe_write.o)
 .pdr           0x0000000000000000        0x0 libbb/lib.a(safe_write.o)
 .text          0x0000000000000000        0x0 libbb/lib.a(skip_whitespace.o)
 .data          0x0000000000000000        0x0 libbb/lib.a(skip_whitespace.o)
 .bss           0x0000000000000000        0x0 libbb/lib.a(skip_whitespace.o)
 .reginfo       0x0000000000000000        0x0 libbb/lib.a(skip_whitespace.o)
 .pdr           0x0000000000000000        0x0 libbb/lib.a(skip_whitespace.o)
 .text          0x0000000000000000        0x0 libbb/lib.a(verror_msg.o)
 .data          0x0000000000000000        0x0 libbb/lib.a(verror_msg.o)
 .bss           0x0000000000000000        0x0 libbb/lib.a(verror_msg.o)
 .reginfo       0x0000000000000000        0x0 libbb/lib.a(verror_msg.o)
 .pdr           0x0000000000000000        0x0 libbb/lib.a(verror_msg.o)
 .text          0x0000000000000000        0x0 libbb/lib.a(vfork_daemon_rexec.o)
 .data          0x0000000000000000        0x0 libbb/lib.a(vfork_daemon_rexec.o)
 .bss           0x0000000000000000        0x0 libbb/lib.a(vfork_daemon_rexec.o)
 .reginfo       0x0000000000000000        0x0 libbb/lib.a(vfork_daemon_rexec.o)
 .pdr           0x0000000000000000        0x0 libbb/lib.a(vfork_daemon_rexec.o)
 .text.bb_sanitize_stdio
                0x0000000000000000        0x0 libbb/lib.a(vfork_daemon_rexec.o)
 .text.wait_pid
                0x0000000000000000        0x0 libbb/lib.a(vfork_daemon_rexec.o)
 .text.wait_nohang
                0x0000000000000000        0x0 libbb/lib.a(vfork_daemon_rexec.o)
 .text.xspawn   0x0000000000000000        0x0 libbb/lib.a(vfork_daemon_rexec.o)
 .text          0x0000000000000000        0x0 libbb/lib.a(wfopen.o)
 .data          0x0000000000000000        0x0 libbb/lib.a(wfopen.o)
 .bss           0x0000000000000000        0x0 libbb/lib.a(wfopen.o)
 .reginfo       0x0000000000000000        0x0 libbb/lib.a(wfopen.o)
 .pdr           0x0000000000000000        0x0 libbb/lib.a(wfopen.o)
 .text          0x0000000000000000        0x0 libbb/lib.a(wfopen_input.o)
 .data          0x0000000000000000        0x0 libbb/lib.a(wfopen_input.o)
 .bss           0x0000000000000000        0x0 libbb/lib.a(wfopen_input.o)
 .reginfo       0x0000000000000000        0x0 libbb/lib.a(wfopen_input.o)
 .pdr           0x0000000000000000        0x0 libbb/lib.a(wfopen_input.o)
 .text          0x0000000000000000        0x0 libbb/lib.a(xatonum.o)
 .data          0x0000000000000000        0x0 libbb/lib.a(xatonum.o)
 .bss           0x0000000000000000        0x0 libbb/lib.a(xatonum.o)
 .reginfo       0x0000000000000000        0x0 libbb/lib.a(xatonum.o)
 .pdr           0x0000000000000000        0x0 libbb/lib.a(xatonum.o)
 .text.xstrtol_range_sfx
                0x0000000000000000        0x0 libbb/lib.a(xatonum.o)
 .text.xatol    0x0000000000000000        0x0 libbb/lib.a(xatonum.o)
 .text.xatol_sfx
                0x0000000000000000        0x0 libbb/lib.a(xatonum.o)
 .text.xatol_range
                0x0000000000000000        0x0 libbb/lib.a(xatonum.o)
 .text.xatol_range_sfx
                0x0000000000000000        0x0 libbb/lib.a(xatonum.o)
 .text.xstrtol_range
                0x0000000000000000        0x0 libbb/lib.a(xatonum.o)
 .text.xstrtoul
                0x0000000000000000        0x0 libbb/lib.a(xatonum.o)
 .text.xstrtoul_sfx
                0x0000000000000000        0x0 libbb/lib.a(xatonum.o)
 .text.xstrtoul_range
                0x0000000000000000        0x0 libbb/lib.a(xatonum.o)
 .text.xstrtoull_range_sfx
                0x0000000000000000        0x0 libbb/lib.a(xatonum.o)
 .text.xstrtoll_range_sfx
                0x0000000000000000        0x0 libbb/lib.a(xatonum.o)
 .text.xatoll   0x0000000000000000        0x0 libbb/lib.a(xatonum.o)
 .text.xatoll_sfx
                0x0000000000000000        0x0 libbb/lib.a(xatonum.o)
 .text.xatoll_range
                0x0000000000000000        0x0 libbb/lib.a(xatonum.o)
 .text.xatoll_range_sfx
                0x0000000000000000        0x0 libbb/lib.a(xatonum.o)
 .text.xstrtoll_range
                0x0000000000000000        0x0 libbb/lib.a(xatonum.o)
 .text.xatoull_sfx
                0x0000000000000000        0x0 libbb/lib.a(xatonum.o)
 .text.xatoull  0x0000000000000000        0x0 libbb/lib.a(xatonum.o)
 .text.xatoull_range
                0x0000000000000000        0x0 libbb/lib.a(xatonum.o)
 .text.xatoull_range_sfx
                0x0000000000000000        0x0 libbb/lib.a(xatonum.o)
 .text.xstrtoull
                0x0000000000000000        0x0 libbb/lib.a(xatonum.o)
 .text.xstrtoull_sfx
                0x0000000000000000        0x0 libbb/lib.a(xatonum.o)
 .text.xstrtoull_range
                0x0000000000000000        0x0 libbb/lib.a(xatonum.o)
 .text          0x0000000000000000        0x0 libbb/lib.a(xfuncs.o)
 .data          0x0000000000000000        0x0 libbb/lib.a(xfuncs.o)
 .bss           0x0000000000000000        0x0 libbb/lib.a(xfuncs.o)
 .reginfo       0x0000000000000000        0x0 libbb/lib.a(xfuncs.o)
 .pdr           0x0000000000000000        0x0 libbb/lib.a(xfuncs.o)
 .text.smart_ulltoa5
                0x0000000000000000        0x0 libbb/lib.a(xfuncs.o)
 .text.utoa     0x0000000000000000        0x0 libbb/lib.a(xfuncs.o)
 .text.bin2hex  0x0000000000000000        0x0 libbb/lib.a(xfuncs.o)
 .text.selinux_or_die
                0x0000000000000000        0x0 libbb/lib.a(xfuncs.o)
 .text.xsendto  0x0000000000000000        0x0 libbb/lib.a(xfuncs.o)
 .text.xfflush_stdout
                0x0000000000000000        0x0 libbb/lib.a(xfuncs.o)
 .text.xprint_and_close_file
                0x0000000000000000        0x0 libbb/lib.a(xfuncs.o)
 .text.fdlength
                0x0000000000000000        0x0 libbb/lib.a(xfuncs.o)
 .text.sig_pause
                0x0000000000000000        0x0 libbb/lib.a(xfuncs.o)
 .text.sig_catch
                0x0000000000000000        0x0 libbb/lib.a(xfuncs.o)
 .text.sig_unblock
                0x0000000000000000        0x0 libbb/lib.a(xfuncs.o)
 .text.sig_block
                0x0000000000000000        0x0 libbb/lib.a(xfuncs.o)
 .text.xunlink  0x0000000000000000        0x0 libbb/lib.a(xfuncs.o)
 .text.xpipe    0x0000000000000000        0x0 libbb/lib.a(xfuncs.o)
 .text          0x0000000000000000        0x0 libbb/lib.a(xgetcwd.o)
 .data          0x0000000000000000        0x0 libbb/lib.a(xgetcwd.o)
 .bss           0x0000000000000000        0x0 libbb/lib.a(xgetcwd.o)
 .reginfo       0x0000000000000000        0x0 libbb/lib.a(xgetcwd.o)
 .pdr           0x0000000000000000        0x0 libbb/lib.a(xgetcwd.o)
 .text          0x0000000000000000        0x0 libbb/lib.a(xreadlink.o)
 .data          0x0000000000000000        0x0 libbb/lib.a(xreadlink.o)
 .bss           0x0000000000000000        0x0 libbb/lib.a(xreadlink.o)
 .reginfo       0x0000000000000000        0x0 libbb/lib.a(xreadlink.o)
 .pdr           0x0000000000000000        0x0 libbb/lib.a(xreadlink.o)
 .text          0x0000000000000000        0x0 libbb/lib.a(xregcomp.o)
 .data          0x0000000000000000        0x0 libbb/lib.a(xregcomp.o)
 .bss           0x0000000000000000        0x0 libbb/lib.a(xregcomp.o)
 .reginfo       0x0000000000000000        0x0 libbb/lib.a(xregcomp.o)
 .pdr           0x0000000000000000        0x0 libbb/lib.a(xregcomp.o)
 .text          0x0000000000000000        0x0 libpwdgrp/lib.a(uidgid_get.o)
 .data          0x0000000000000000        0x0 libpwdgrp/lib.a(uidgid_get.o)
 .bss           0x0000000000000000        0x0 libpwdgrp/lib.a(uidgid_get.o)
 .reginfo       0x0000000000000000        0x0 libpwdgrp/lib.a(uidgid_get.o)
 .pdr           0x0000000000000000        0x0 libpwdgrp/lib.a(uidgid_get.o)
 .text          0x0000000000000000        0x0 loginutils/lib.a(addgroup.o)
 .data          0x0000000000000000        0x0 loginutils/lib.a(addgroup.o)
 .bss           0x0000000000000000        0x0 loginutils/lib.a(addgroup.o)
 .reginfo       0x0000000000000000        0x0 loginutils/lib.a(addgroup.o)
 .pdr           0x0000000000000000        0x0 loginutils/lib.a(addgroup.o)
 .text          0x0000000000000000        0x0 loginutils/lib.a(adduser.o)
 .data          0x0000000000000000        0x0 loginutils/lib.a(adduser.o)
 .bss           0x0000000000000000        0x0 loginutils/lib.a(adduser.o)
 .reginfo       0x0000000000000000        0x0 loginutils/lib.a(adduser.o)
 .pdr           0x0000000000000000        0x0 loginutils/lib.a(adduser.o)
 .text          0x0000000000000000        0x0 loginutils/lib.a(deluser.o)
 .data          0x0000000000000000        0x0 loginutils/lib.a(deluser.o)
 .bss           0x0000000000000000        0x0 loginutils/lib.a(deluser.o)
 .reginfo       0x0000000000000000        0x0 loginutils/lib.a(deluser.o)
 .pdr           0x0000000000000000        0x0 loginutils/lib.a(deluser.o)
 .text          0x0000000000000000        0x0 loginutils/lib.a(getty.o)
 .data          0x0000000000000000        0x0 loginutils/lib.a(getty.o)
 .bss           0x0000000000000000        0x0 loginutils/lib.a(getty.o)
 .reginfo       0x0000000000000000        0x0 loginutils/lib.a(getty.o)
 .pdr           0x0000000000000000        0x0 loginutils/lib.a(getty.o)
 .text          0x0000000000000000        0x0 loginutils/lib.a(login.o)
 .data          0x0000000000000000        0x0 loginutils/lib.a(login.o)
 .bss           0x0000000000000000        0x0 loginutils/lib.a(login.o)
 .reginfo       0x0000000000000000        0x0 loginutils/lib.a(login.o)
 .pdr           0x0000000000000000        0x0 loginutils/lib.a(login.o)
 .text          0x0000000000000000        0x0 loginutils/lib.a(passwd.o)
 .data          0x0000000000000000        0x0 loginutils/lib.a(passwd.o)
 .bss           0x0000000000000000        0x0 loginutils/lib.a(passwd.o)
 .reginfo       0x0000000000000000        0x0 loginutils/lib.a(passwd.o)
 .pdr           0x0000000000000000        0x0 loginutils/lib.a(passwd.o)
 .text          0x0000000000000000        0x0 loginutils/lib.a(su.o)
 .data          0x0000000000000000        0x0 loginutils/lib.a(su.o)
 .bss           0x0000000000000000        0x0 loginutils/lib.a(su.o)
 .reginfo       0x0000000000000000        0x0 loginutils/lib.a(su.o)
 .pdr           0x0000000000000000        0x0 loginutils/lib.a(su.o)
 .text          0x0000000000000000        0x0 loginutils/lib.a(sulogin.o)
 .data          0x0000000000000000        0x0 loginutils/lib.a(sulogin.o)
 .bss           0x0000000000000000        0x0 loginutils/lib.a(sulogin.o)
 .reginfo       0x0000000000000000        0x0 loginutils/lib.a(sulogin.o)
 .pdr           0x0000000000000000        0x0 loginutils/lib.a(sulogin.o)
 .text          0x0000000000000000        0x0 miscutils/lib.a(less.o)
 .data          0x0000000000000000        0x0 miscutils/lib.a(less.o)
 .bss           0x0000000000000000        0x0 miscutils/lib.a(less.o)
 .reginfo       0x0000000000000000        0x0 miscutils/lib.a(less.o)
 .pdr           0x0000000000000000        0x0 miscutils/lib.a(less.o)
 .text          0x0000000000000000        0x0 modutils/lib.a(insmod.o)
 .data          0x0000000000000000        0x0 modutils/lib.a(insmod.o)
 .bss           0x0000000000000000        0x0 modutils/lib.a(insmod.o)
 .reginfo       0x0000000000000000        0x0 modutils/lib.a(insmod.o)
 .pdr           0x0000000000000000        0x0 modutils/lib.a(insmod.o)
 .text          0x0000000000000000        0x0 modutils/lib.a(lsmod.o)
 .data          0x0000000000000000        0x0 modutils/lib.a(lsmod.o)
 .bss           0x0000000000000000        0x0 modutils/lib.a(lsmod.o)
 .reginfo       0x0000000000000000        0x0 modutils/lib.a(lsmod.o)
 .pdr           0x0000000000000000        0x0 modutils/lib.a(lsmod.o)
 .text          0x0000000000000000        0x0 modutils/lib.a(rmmod.o)
 .data          0x0000000000000000        0x0 modutils/lib.a(rmmod.o)
 .bss           0x0000000000000000        0x0 modutils/lib.a(rmmod.o)
 .reginfo       0x0000000000000000        0x0 modutils/lib.a(rmmod.o)
 .pdr           0x0000000000000000        0x0 modutils/lib.a(rmmod.o)
 .text          0x0000000000000000        0x0 networking/lib.a(arp.o)
 .data          0x0000000000000000        0x0 networking/lib.a(arp.o)
 .bss           0x0000000000000000        0x0 networking/lib.a(arp.o)
 .reginfo       0x0000000000000000        0x0 networking/lib.a(arp.o)
 .pdr           0x0000000000000000        0x0 networking/lib.a(arp.o)
 .text          0x0000000000000000        0x0 networking/lib.a(ifconfig.o)
 .data          0x0000000000000000        0x0 networking/lib.a(ifconfig.o)
 .bss           0x0000000000000000        0x0 networking/lib.a(ifconfig.o)
 .reginfo       0x0000000000000000        0x0 networking/lib.a(ifconfig.o)
 .pdr           0x0000000000000000        0x0 networking/lib.a(ifconfig.o)
 .text          0x0000000000000000        0x0 networking/lib.a(interface.o)
 .data          0x0000000000000000        0x0 networking/lib.a(interface.o)
 .bss           0x0000000000000000        0x0 networking/lib.a(interface.o)
 .reginfo       0x0000000000000000        0x0 networking/lib.a(interface.o)
 .pdr           0x0000000000000000        0x0 networking/lib.a(interface.o)
 .text          0x0000000000000000        0x0 networking/lib.a(netstat.o)
 .data          0x0000000000000000        0x0 networking/lib.a(netstat.o)
 .bss           0x0000000000000000        0x0 networking/lib.a(netstat.o)
 .reginfo       0x0000000000000000        0x0 networking/lib.a(netstat.o)
 .pdr           0x0000000000000000        0x0 networking/lib.a(netstat.o)
 .text          0x0000000000000000        0x0 networking/lib.a(ping.o)
 .data          0x0000000000000000        0x0 networking/lib.a(ping.o)
 .bss           0x0000000000000000        0x0 networking/lib.a(ping.o)
 .reginfo       0x0000000000000000        0x0 networking/lib.a(ping.o)
 .pdr           0x0000000000000000        0x0 networking/lib.a(ping.o)
 .text          0x0000000000000000        0x0 networking/lib.a(route.o)
 .data          0x0000000000000000        0x0 networking/lib.a(route.o)
 .bss           0x0000000000000000        0x0 networking/lib.a(route.o)
 .reginfo       0x0000000000000000        0x0 networking/lib.a(route.o)
 .pdr           0x0000000000000000        0x0 networking/lib.a(route.o)
 .text          0x0000000000000000        0x0 networking/lib.a(telnet.o)
 .data          0x0000000000000000        0x0 networking/lib.a(telnet.o)
 .bss           0x0000000000000000        0x0 networking/lib.a(telnet.o)
 .reginfo       0x0000000000000000        0x0 networking/lib.a(telnet.o)
 .pdr           0x0000000000000000        0x0 networking/lib.a(telnet.o)
 .text          0x0000000000000000        0x0 networking/lib.a(telnetd.o)
 .data          0x0000000000000000        0x0 networking/lib.a(telnetd.o)
 .bss           0x0000000000000000        0x0 networking/lib.a(telnetd.o)
 .reginfo       0x0000000000000000        0x0 networking/lib.a(telnetd.o)
 .pdr           0x0000000000000000        0x0 networking/lib.a(telnetd.o)
 .text          0x0000000000000000        0x0 networking/lib.a(wget.o)
 .data          0x0000000000000000        0x0 networking/lib.a(wget.o)
 .bss           0x0000000000000000        0x0 networking/lib.a(wget.o)
 .reginfo       0x0000000000000000        0x0 networking/lib.a(wget.o)
 .pdr           0x0000000000000000        0x0 networking/lib.a(wget.o)
 .text          0x0000000000000000        0x0 procps/lib.a(free.o)
 .data          0x0000000000000000        0x0 procps/lib.a(free.o)
 .bss           0x0000000000000000        0x0 procps/lib.a(free.o)
 .reginfo       0x0000000000000000        0x0 procps/lib.a(free.o)
 .pdr           0x0000000000000000        0x0 procps/lib.a(free.o)
 .text          0x0000000000000000        0x0 procps/lib.a(kill.o)
 .data          0x0000000000000000        0x0 procps/lib.a(kill.o)
 .bss           0x0000000000000000        0x0 procps/lib.a(kill.o)
 .reginfo       0x0000000000000000        0x0 procps/lib.a(kill.o)
 .pdr           0x0000000000000000        0x0 procps/lib.a(kill.o)
 .text          0x0000000000000000        0x0 procps/lib.a(ps.o)
 .data          0x0000000000000000        0x0 procps/lib.a(ps.o)
 .bss           0x0000000000000000        0x0 procps/lib.a(ps.o)
 .reginfo       0x0000000000000000        0x0 procps/lib.a(ps.o)
 .pdr           0x0000000000000000        0x0 procps/lib.a(ps.o)
 .text          0x0000000000000000        0x0 procps/lib.a(sysctl.o)
 .data          0x0000000000000000        0x0 procps/lib.a(sysctl.o)
 .bss           0x0000000000000000        0x0 procps/lib.a(sysctl.o)
 .reginfo       0x0000000000000000        0x0 procps/lib.a(sysctl.o)
 .pdr           0x0000000000000000        0x0 procps/lib.a(sysctl.o)
 .text          0x0000000000000000        0x0 procps/lib.a(top.o)
 .data          0x0000000000000000        0x0 procps/lib.a(top.o)
 .bss           0x0000000000000000        0x0 procps/lib.a(top.o)
 .reginfo       0x0000000000000000        0x0 procps/lib.a(top.o)
 .pdr           0x0000000000000000        0x0 procps/lib.a(top.o)
 .text          0x0000000000000000        0x0 procps/lib.a(uptime.o)
 .data          0x0000000000000000        0x0 procps/lib.a(uptime.o)
 .bss           0x0000000000000000        0x0 procps/lib.a(uptime.o)
 .reginfo       0x0000000000000000        0x0 procps/lib.a(uptime.o)
 .pdr           0x0000000000000000        0x0 procps/lib.a(uptime.o)
 .text          0x0000000000000000        0x0 shell/lib.a(msh.o)
 .data          0x0000000000000000        0x0 shell/lib.a(msh.o)
 .bss           0x0000000000000000        0x0 shell/lib.a(msh.o)
 .reginfo       0x0000000000000000        0x0 shell/lib.a(msh.o)
 .pdr           0x0000000000000000        0x0 shell/lib.a(msh.o)
 .text          0x0000000000000000        0x0 sysklogd/lib.a(klogd.o)
 .data          0x0000000000000000        0x0 sysklogd/lib.a(klogd.o)
 .bss           0x0000000000000000        0x0 sysklogd/lib.a(klogd.o)
 .reginfo       0x0000000000000000        0x0 sysklogd/lib.a(klogd.o)
 .pdr           0x0000000000000000        0x0 sysklogd/lib.a(klogd.o)
 .text          0x0000000000000000        0x0 sysklogd/lib.a(logger.o)
 .data          0x0000000000000000        0x0 sysklogd/lib.a(logger.o)
 .bss           0x0000000000000000        0x0 sysklogd/lib.a(logger.o)
 .reginfo       0x0000000000000000        0x0 sysklogd/lib.a(logger.o)
 .pdr           0x0000000000000000        0x0 sysklogd/lib.a(logger.o)
 .text          0x0000000000000000        0x0 sysklogd/lib.a(logread.o)
 .data          0x0000000000000000        0x0 sysklogd/lib.a(logread.o)
 .bss           0x0000000000000000        0x0 sysklogd/lib.a(logread.o)
 .reginfo       0x0000000000000000        0x0 sysklogd/lib.a(logread.o)
 .pdr           0x0000000000000000        0x0 sysklogd/lib.a(logread.o)
 .text          0x0000000000000000        0x0 sysklogd/lib.a(syslogd.o)
 .data          0x0000000000000000        0x0 sysklogd/lib.a(syslogd.o)
 .bss           0x0000000000000000        0x0 sysklogd/lib.a(syslogd.o)
 .reginfo       0x0000000000000000        0x0 sysklogd/lib.a(syslogd.o)
 .pdr           0x0000000000000000        0x0 sysklogd/lib.a(syslogd.o)
 .text          0x0000000000000000        0x0 util-linux/lib.a(dmesg.o)
 .data          0x0000000000000000        0x0 util-linux/lib.a(dmesg.o)
 .bss           0x0000000000000000        0x0 util-linux/lib.a(dmesg.o)
 .reginfo       0x0000000000000000        0x0 util-linux/lib.a(dmesg.o)
 .pdr           0x0000000000000000        0x0 util-linux/lib.a(dmesg.o)
 .text          0x0000000000000000        0x0 util-linux/lib.a(fdisk.o)
 .data          0x0000000000000000        0x0 util-linux/lib.a(fdisk.o)
 .bss           0x0000000000000000        0x0 util-linux/lib.a(fdisk.o)
 .reginfo       0x0000000000000000        0x0 util-linux/lib.a(fdisk.o)
 .pdr           0x0000000000000000        0x0 util-linux/lib.a(fdisk.o)
 .text          0x0000000000000000        0x0 util-linux/lib.a(fsck_minix.o)
 .data          0x0000000000000000        0x0 util-linux/lib.a(fsck_minix.o)
 .bss           0x0000000000000000        0x0 util-linux/lib.a(fsck_minix.o)
 .reginfo       0x0000000000000000        0x0 util-linux/lib.a(fsck_minix.o)
 .pdr           0x0000000000000000        0x0 util-linux/lib.a(fsck_minix.o)
 .text          0x0000000000000000        0x0 util-linux/lib.a(mkfs_minix.o)
 .data          0x0000000000000000        0x0 util-linux/lib.a(mkfs_minix.o)
 .bss           0x0000000000000000        0x0 util-linux/lib.a(mkfs_minix.o)
 .reginfo       0x0000000000000000        0x0 util-linux/lib.a(mkfs_minix.o)
 .pdr           0x0000000000000000        0x0 util-linux/lib.a(mkfs_minix.o)
 .text          0x0000000000000000        0x0 util-linux/lib.a(more.o)
 .data          0x0000000000000000        0x0 util-linux/lib.a(more.o)
 .bss           0x0000000000000000        0x0 util-linux/lib.a(more.o)
 .reginfo       0x0000000000000000        0x0 util-linux/lib.a(more.o)
 .pdr           0x0000000000000000        0x0 util-linux/lib.a(more.o)
 .text          0x0000000000000000        0x0 util-linux/lib.a(mount.o)
 .data          0x0000000000000000        0x0 util-linux/lib.a(mount.o)
 .bss           0x0000000000000000        0x0 util-linux/lib.a(mount.o)
 .reginfo       0x0000000000000000        0x0 util-linux/lib.a(mount.o)
 .pdr           0x0000000000000000        0x0 util-linux/lib.a(mount.o)
 .text          0x0000000000000000        0x0 util-linux/lib.a(pivot_root.o)
 .data          0x0000000000000000        0x0 util-linux/lib.a(pivot_root.o)
 .bss           0x0000000000000000        0x0 util-linux/lib.a(pivot_root.o)
 .reginfo       0x0000000000000000        0x0 util-linux/lib.a(pivot_root.o)
 .pdr           0x0000000000000000        0x0 util-linux/lib.a(pivot_root.o)
 .text          0x0000000000000000        0x0 util-linux/lib.a(rdate.o)
 .data          0x0000000000000000        0x0 util-linux/lib.a(rdate.o)
 .bss           0x0000000000000000        0x0 util-linux/lib.a(rdate.o)
 .reginfo       0x0000000000000000        0x0 util-linux/lib.a(rdate.o)
 .pdr           0x0000000000000000        0x0 util-linux/lib.a(rdate.o)
 .text          0x0000000000000000        0x0 util-linux/lib.a(swaponoff.o)
 .data          0x0000000000000000        0x0 util-linux/lib.a(swaponoff.o)
 .bss           0x0000000000000000        0x0 util-linux/lib.a(swaponoff.o)
 .reginfo       0x0000000000000000        0x0 util-linux/lib.a(swaponoff.o)
 .pdr           0x0000000000000000        0x0 util-linux/lib.a(swaponoff.o)
 .text          0x0000000000000000        0x0 util-linux/lib.a(umount.o)
 .data          0x0000000000000000        0x0 util-linux/lib.a(umount.o)
 .bss           0x0000000000000000        0x0 util-linux/lib.a(umount.o)
 .reginfo       0x0000000000000000        0x0 util-linux/lib.a(umount.o)
 .pdr           0x0000000000000000        0x0 util-linux/lib.a(umount.o)
 .text          0x0000000000000000        0x0 libbb/lib.a(bb_askpass.o)
 .data          0x0000000000000000        0x0 libbb/lib.a(bb_askpass.o)
 .bss           0x0000000000000000        0x0 libbb/lib.a(bb_askpass.o)
 .reginfo       0x0000000000000000        0x0 libbb/lib.a(bb_askpass.o)
 .pdr           0x0000000000000000        0x0 libbb/lib.a(bb_askpass.o)
 .text          0x0000000000000000        0x0 libbb/lib.a(bb_do_delay.o)
 .data          0x0000000000000000        0x0 libbb/lib.a(bb_do_delay.o)
 .bss           0x0000000000000000        0x0 libbb/lib.a(bb_do_delay.o)
 .reginfo       0x0000000000000000        0x0 libbb/lib.a(bb_do_delay.o)
 .pdr           0x0000000000000000        0x0 libbb/lib.a(bb_do_delay.o)
 .text          0x0000000000000000        0x0 libbb/lib.a(change_identity.o)
 .data          0x0000000000000000        0x0 libbb/lib.a(change_identity.o)
 .bss           0x0000000000000000        0x0 libbb/lib.a(change_identity.o)
 .reginfo       0x0000000000000000        0x0 libbb/lib.a(change_identity.o)
 .pdr           0x0000000000000000        0x0 libbb/lib.a(change_identity.o)
 .text          0x0000000000000000        0x0 libbb/lib.a(correct_password.o)
 .data          0x0000000000000000        0x0 libbb/lib.a(correct_password.o)
 .bss           0x0000000000000000        0x0 libbb/lib.a(correct_password.o)
 .reginfo       0x0000000000000000        0x0 libbb/lib.a(correct_password.o)
 .pdr           0x0000000000000000        0x0 libbb/lib.a(correct_password.o)
 .text          0x0000000000000000        0x0 libbb/lib.a(create_icmp_socket.o)
 .data          0x0000000000000000        0x0 libbb/lib.a(create_icmp_socket.o)
 .bss           0x0000000000000000        0x0 libbb/lib.a(create_icmp_socket.o)
 .reginfo       0x0000000000000000        0x0 libbb/lib.a(create_icmp_socket.o)
 .pdr           0x0000000000000000        0x0 libbb/lib.a(create_icmp_socket.o)
 .text          0x0000000000000000        0x0 libbb/lib.a(crypt_make_salt.o)
 .data          0x0000000000000000        0x0 libbb/lib.a(crypt_make_salt.o)
 .bss           0x0000000000000000        0x0 libbb/lib.a(crypt_make_salt.o)
 .reginfo       0x0000000000000000        0x0 libbb/lib.a(crypt_make_salt.o)
 .pdr           0x0000000000000000        0x0 libbb/lib.a(crypt_make_salt.o)
 .text          0x0000000000000000        0x0 libbb/lib.a(device_open.o)
 .data          0x0000000000000000        0x0 libbb/lib.a(device_open.o)
 .bss           0x0000000000000000        0x0 libbb/lib.a(device_open.o)
 .reginfo       0x0000000000000000        0x0 libbb/lib.a(device_open.o)
 .pdr           0x0000000000000000        0x0 libbb/lib.a(device_open.o)
 .text          0x0000000000000000        0x0 libbb/lib.a(find_pid_by_name.o)
 .data          0x0000000000000000        0x0 libbb/lib.a(find_pid_by_name.o)
 .bss           0x0000000000000000        0x0 libbb/lib.a(find_pid_by_name.o)
 .reginfo       0x0000000000000000        0x0 libbb/lib.a(find_pid_by_name.o)
 .pdr           0x0000000000000000        0x0 libbb/lib.a(find_pid_by_name.o)
 .text.pidlist_reverse
                0x0000000000000000        0x0 libbb/lib.a(find_pid_by_name.o)
 .text          0x0000000000000000        0x0 libbb/lib.a(herror_msg.o)
 .data          0x0000000000000000        0x0 libbb/lib.a(herror_msg.o)
 .bss           0x0000000000000000        0x0 libbb/lib.a(herror_msg.o)
 .reginfo       0x0000000000000000        0x0 libbb/lib.a(herror_msg.o)
 .pdr           0x0000000000000000        0x0 libbb/lib.a(herror_msg.o)
 .text          0x0000000000000000        0x0 libbb/lib.a(herror_msg_and_die.o)
 .data          0x0000000000000000        0x0 libbb/lib.a(herror_msg_and_die.o)
 .bss           0x0000000000000000        0x0 libbb/lib.a(herror_msg_and_die.o)
 .reginfo       0x0000000000000000        0x0 libbb/lib.a(herror_msg_and_die.o)
 .pdr           0x0000000000000000        0x0 libbb/lib.a(herror_msg_and_die.o)
 .text          0x0000000000000000        0x0 libbb/lib.a(inet_common.o)
 .data          0x0000000000000000        0x0 libbb/lib.a(inet_common.o)
 .bss           0x0000000000000000        0x0 libbb/lib.a(inet_common.o)
 .reginfo       0x0000000000000000        0x0 libbb/lib.a(inet_common.o)
 .pdr           0x0000000000000000        0x0 libbb/lib.a(inet_common.o)
 .text          0x0000000000000000        0x0 libbb/lib.a(info_msg.o)
 .data          0x0000000000000000        0x0 libbb/lib.a(info_msg.o)
 .bss           0x0000000000000000        0x0 libbb/lib.a(info_msg.o)
 .reginfo       0x0000000000000000        0x0 libbb/lib.a(info_msg.o)
 .pdr           0x0000000000000000        0x0 libbb/lib.a(info_msg.o)
 .text          0x0000000000000000        0x0 libbb/lib.a(kernel_version.o)
 .data          0x0000000000000000        0x0 libbb/lib.a(kernel_version.o)
 .bss           0x0000000000000000        0x0 libbb/lib.a(kernel_version.o)
 .reginfo       0x0000000000000000        0x0 libbb/lib.a(kernel_version.o)
 .pdr           0x0000000000000000        0x0 libbb/lib.a(kernel_version.o)
 .text          0x0000000000000000        0x0 libbb/lib.a(lineedit.o)
 .data          0x0000000000000000        0x0 libbb/lib.a(lineedit.o)
 .bss           0x0000000000000000        0x0 libbb/lib.a(lineedit.o)
 .reginfo       0x0000000000000000        0x0 libbb/lib.a(lineedit.o)
 .pdr           0x0000000000000000        0x0 libbb/lib.a(lineedit.o)
 .text          0x0000000000000000        0x0 libbb/lib.a(login.o)
 .data          0x0000000000000000        0x0 libbb/lib.a(login.o)
 .bss           0x0000000000000000        0x0 libbb/lib.a(login.o)
 .reginfo       0x0000000000000000        0x0 libbb/lib.a(login.o)
 .pdr           0x0000000000000000        0x0 libbb/lib.a(login.o)
 .text          0x0000000000000000        0x0 libbb/lib.a(loop.o)
 .data          0x0000000000000000        0x0 libbb/lib.a(loop.o)
 .bss           0x0000000000000000        0x0 libbb/lib.a(loop.o)
 .reginfo       0x0000000000000000        0x0 libbb/lib.a(loop.o)
 .pdr           0x0000000000000000        0x0 libbb/lib.a(loop.o)
 .text.query_loop
                0x0000000000000000        0x0 libbb/lib.a(loop.o)
 .text          0x0000000000000000        0x0 libbb/lib.a(match_fstype.o)
 .data          0x0000000000000000        0x0 libbb/lib.a(match_fstype.o)
 .bss           0x0000000000000000        0x0 libbb/lib.a(match_fstype.o)
 .reginfo       0x0000000000000000        0x0 libbb/lib.a(match_fstype.o)
 .pdr           0x0000000000000000        0x0 libbb/lib.a(match_fstype.o)
 .text          0x0000000000000000        0x0 libbb/lib.a(obscure.o)
 .data          0x0000000000000000        0x0 libbb/lib.a(obscure.o)
 .bss           0x0000000000000000        0x0 libbb/lib.a(obscure.o)
 .reginfo       0x0000000000000000        0x0 libbb/lib.a(obscure.o)
 .pdr           0x0000000000000000        0x0 libbb/lib.a(obscure.o)
 .text          0x0000000000000000        0x0 libbb/lib.a(pidfile.o)
 .data          0x0000000000000000        0x0 libbb/lib.a(pidfile.o)
 .bss           0x0000000000000000        0x0 libbb/lib.a(pidfile.o)
 .reginfo       0x0000000000000000        0x0 libbb/lib.a(pidfile.o)
 .pdr           0x0000000000000000        0x0 libbb/lib.a(pidfile.o)
 .text          0x0000000000000000        0x0 libbb/lib.a(pw_encrypt.o)
 .data          0x0000000000000000        0x0 libbb/lib.a(pw_encrypt.o)
 .bss           0x0000000000000000        0x0 libbb/lib.a(pw_encrypt.o)
 .reginfo       0x0000000000000000        0x0 libbb/lib.a(pw_encrypt.o)
 .pdr           0x0000000000000000        0x0 libbb/lib.a(pw_encrypt.o)
 .text          0x0000000000000000        0x0 libbb/lib.a(run_shell.o)
 .data          0x0000000000000000        0x0 libbb/lib.a(run_shell.o)
 .bss           0x0000000000000000        0x0 libbb/lib.a(run_shell.o)
 .reginfo       0x0000000000000000        0x0 libbb/lib.a(run_shell.o)
 .pdr           0x0000000000000000        0x0 libbb/lib.a(run_shell.o)
 .text          0x0000000000000000        0x0 libbb/lib.a(setup_environment.o)
 .data          0x0000000000000000        0x0 libbb/lib.a(setup_environment.o)
 .bss           0x0000000000000000        0x0 libbb/lib.a(setup_environment.o)
 .reginfo       0x0000000000000000        0x0 libbb/lib.a(setup_environment.o)
 .pdr           0x0000000000000000        0x0 libbb/lib.a(setup_environment.o)
 .text          0x0000000000000000        0x0 libbb/lib.a(simplify_path.o)
 .data          0x0000000000000000        0x0 libbb/lib.a(simplify_path.o)
 .bss           0x0000000000000000        0x0 libbb/lib.a(simplify_path.o)
 .reginfo       0x0000000000000000        0x0 libbb/lib.a(simplify_path.o)
 .pdr           0x0000000000000000        0x0 libbb/lib.a(simplify_path.o)
 .text          0x0000000000000000        0x0 libbb/lib.a(speed_table.o)
 .data          0x0000000000000000        0x0 libbb/lib.a(speed_table.o)
 .bss           0x0000000000000000        0x0 libbb/lib.a(speed_table.o)
 .reginfo       0x0000000000000000        0x0 libbb/lib.a(speed_table.o)
 .pdr           0x0000000000000000        0x0 libbb/lib.a(speed_table.o)
 .text          0x0000000000000000        0x0 libbb/lib.a(str_tolower.o)
 .data          0x0000000000000000        0x0 libbb/lib.a(str_tolower.o)
 .bss           0x0000000000000000        0x0 libbb/lib.a(str_tolower.o)
 .reginfo       0x0000000000000000        0x0 libbb/lib.a(str_tolower.o)
 .pdr           0x0000000000000000        0x0 libbb/lib.a(str_tolower.o)
 .text          0x0000000000000000        0x0 libbb/lib.a(time.o)
 .data          0x0000000000000000        0x0 libbb/lib.a(time.o)
 .bss           0x0000000000000000        0x0 libbb/lib.a(time.o)
 .reginfo       0x0000000000000000        0x0 libbb/lib.a(time.o)
 .pdr           0x0000000000000000        0x0 libbb/lib.a(time.o)
 .text.monotonic_us
                0x0000000000000000        0x0 libbb/lib.a(time.o)
 .text          0x0000000000000000        0x0 libbb/lib.a(trim.o)
 .data          0x0000000000000000        0x0 libbb/lib.a(trim.o)
 .bss           0x0000000000000000        0x0 libbb/lib.a(trim.o)
 .reginfo       0x0000000000000000        0x0 libbb/lib.a(trim.o)
 .pdr           0x0000000000000000        0x0 libbb/lib.a(trim.o)
 .text          0x0000000000000000        0x0 libbb/lib.a(u_signal_names.o)
 .data          0x0000000000000000        0x0 libbb/lib.a(u_signal_names.o)
 .bss           0x0000000000000000        0x0 libbb/lib.a(u_signal_names.o)
 .reginfo       0x0000000000000000        0x0 libbb/lib.a(u_signal_names.o)
 .pdr           0x0000000000000000        0x0 libbb/lib.a(u_signal_names.o)
 .text          0x0000000000000000        0x0 libbb/lib.a(update_passwd.o)
 .data          0x0000000000000000        0x0 libbb/lib.a(update_passwd.o)
 .bss           0x0000000000000000        0x0 libbb/lib.a(update_passwd.o)
 .reginfo       0x0000000000000000        0x0 libbb/lib.a(update_passwd.o)
 .pdr           0x0000000000000000        0x0 libbb/lib.a(update_passwd.o)
 .text          0x0000000000000000        0x0 libbb/lib.a(uuencode.o)
 .data          0x0000000000000000        0x0 libbb/lib.a(uuencode.o)
 .bss           0x0000000000000000        0x0 libbb/lib.a(uuencode.o)
 .reginfo       0x0000000000000000        0x0 libbb/lib.a(uuencode.o)
 .pdr           0x0000000000000000        0x0 libbb/lib.a(uuencode.o)
 .rodata.bb_uuenc_tbl_std
                0x0000000000000000        0x0 libbb/lib.a(uuencode.o)
 .text          0x0000000000000000        0x0 libbb/lib.a(xconnect.o)
 .data          0x0000000000000000        0x0 libbb/lib.a(xconnect.o)
 .bss           0x0000000000000000        0x0 libbb/lib.a(xconnect.o)
 .reginfo       0x0000000000000000        0x0 libbb/lib.a(xconnect.o)
 .pdr           0x0000000000000000        0x0 libbb/lib.a(xconnect.o)
 .text.get_nport
                0x0000000000000000        0x0 libbb/lib.a(xconnect.o)
 .text.xmalloc_sockaddr2hostonly_noport
                0x0000000000000000        0x0 libbb/lib.a(xconnect.o)
 .text.xmalloc_sockaddr2host
                0x0000000000000000        0x0 libbb/lib.a(xconnect.o)
 .text.xsocket_stream
                0x0000000000000000        0x0 libbb/lib.a(xconnect.o)
 .text.xhost_and_af2sockaddr
                0x0000000000000000        0x0 libbb/lib.a(xconnect.o)
 .text.host_and_af2sockaddr
                0x0000000000000000        0x0 libbb/lib.a(xconnect.o)
 .text.setsockopt_broadcast
                0x0000000000000000        0x0 libbb/lib.a(xconnect.o)
 .text.create_and_bind_dgram_or_die
                0x0000000000000000        0x0 libbb/lib.a(xconnect.o)
 .text          0x0000000000000000        0x0 libbb/lib.a(xgethostbyname.o)
 .data          0x0000000000000000        0x0 libbb/lib.a(xgethostbyname.o)
 .bss           0x0000000000000000        0x0 libbb/lib.a(xgethostbyname.o)
 .reginfo       0x0000000000000000        0x0 libbb/lib.a(xgethostbyname.o)
 .pdr           0x0000000000000000        0x0 libbb/lib.a(xgethostbyname.o)
 .data          0x0000000000000000        0x0 /projects/hnd/tools/linux/hndtools-mipsel-linux-uclibc-4.2.3/lib/gcc/mipsel-linux-uclibc/4.2.3/libgcc.a(_divdi3.o)
 .bss           0x0000000000000000        0x0 /projects/hnd/tools/linux/hndtools-mipsel-linux-uclibc-4.2.3/lib/gcc/mipsel-linux-uclibc/4.2.3/libgcc.a(_divdi3.o)
 .reginfo       0x0000000000000000        0x0 /projects/hnd/tools/linux/hndtools-mipsel-linux-uclibc-4.2.3/lib/gcc/mipsel-linux-uclibc/4.2.3/libgcc.a(_divdi3.o)
 .pdr           0x0000000000000000        0x0 /projects/hnd/tools/linux/hndtools-mipsel-linux-uclibc-4.2.3/lib/gcc/mipsel-linux-uclibc/4.2.3/libgcc.a(_divdi3.o)
 .data          0x0000000000000000        0x0 /projects/hnd/tools/linux/hndtools-mipsel-linux-uclibc-4.2.3/lib/gcc/mipsel-linux-uclibc/4.2.3/libgcc.a(_udivdi3.o)
 .bss           0x0000000000000000        0x0 /projects/hnd/tools/linux/hndtools-mipsel-linux-uclibc-4.2.3/lib/gcc/mipsel-linux-uclibc/4.2.3/libgcc.a(_udivdi3.o)
 .reginfo       0x0000000000000000        0x0 /projects/hnd/tools/linux/hndtools-mipsel-linux-uclibc-4.2.3/lib/gcc/mipsel-linux-uclibc/4.2.3/libgcc.a(_udivdi3.o)
 .pdr           0x0000000000000000        0x0 /projects/hnd/tools/linux/hndtools-mipsel-linux-uclibc-4.2.3/lib/gcc/mipsel-linux-uclibc/4.2.3/libgcc.a(_udivdi3.o)
 .data          0x0000000000000000        0x0 /projects/hnd/tools/linux/hndtools-mipsel-linux-uclibc-4.2.3/lib/gcc/mipsel-linux-uclibc/4.2.3/libgcc.a(_umoddi3.o)
 .bss           0x0000000000000000        0x0 /projects/hnd/tools/linux/hndtools-mipsel-linux-uclibc-4.2.3/lib/gcc/mipsel-linux-uclibc/4.2.3/libgcc.a(_umoddi3.o)
 .reginfo       0x0000000000000000        0x0 /projects/hnd/tools/linux/hndtools-mipsel-linux-uclibc-4.2.3/lib/gcc/mipsel-linux-uclibc/4.2.3/libgcc.a(_umoddi3.o)
 .pdr           0x0000000000000000        0x0 /projects/hnd/tools/linux/hndtools-mipsel-linux-uclibc-4.2.3/lib/gcc/mipsel-linux-uclibc/4.2.3/libgcc.a(_umoddi3.o)
 .text          0x0000000000000000        0x0 /projects/hnd/tools/linux/hndtools-mipsel-linux-uclibc-4.2.3/lib/gcc/mipsel-linux-uclibc/4.2.3/libgcc.a(_clz.o)
 .data          0x0000000000000000        0x0 /projects/hnd/tools/linux/hndtools-mipsel-linux-uclibc-4.2.3/lib/gcc/mipsel-linux-uclibc/4.2.3/libgcc.a(_clz.o)
 .bss           0x0000000000000000        0x0 /projects/hnd/tools/linux/hndtools-mipsel-linux-uclibc-4.2.3/lib/gcc/mipsel-linux-uclibc/4.2.3/libgcc.a(_clz.o)
 .reginfo       0x0000000000000000        0x0 /projects/hnd/tools/linux/hndtools-mipsel-linux-uclibc-4.2.3/lib/gcc/mipsel-linux-uclibc/4.2.3/libgcc.a(_clz.o)
 .data          0x0000000000000000        0x0 /projects/hnd/tools/linux/hndtools-mipsel-linux-uclibc-4.2.3/lib/uclibc_nonshared.a(atexit.os)
 .bss           0x0000000000000000        0x0 /projects/hnd/tools/linux/hndtools-mipsel-linux-uclibc-4.2.3/lib/uclibc_nonshared.a(atexit.os)
 .reginfo       0x0000000000000000        0x0 /projects/hnd/tools/linux/hndtools-mipsel-linux-uclibc-4.2.3/lib/uclibc_nonshared.a(atexit.os)
 .pdr           0x0000000000000000        0x0 /projects/hnd/tools/linux/hndtools-mipsel-linux-uclibc-4.2.3/lib/uclibc_nonshared.a(atexit.os)
 .data          0x0000000000000000        0x0 /projects/hnd/tools/linux/hndtools-mipsel-linux-uclibc-4.2.3/lib/gcc/mipsel-linux-uclibc/4.2.3/crtend.o
 .bss           0x0000000000000000        0x0 /projects/hnd/tools/linux/hndtools-mipsel-linux-uclibc-4.2.3/lib/gcc/mipsel-linux-uclibc/4.2.3/crtend.o
 .reginfo       0x0000000000000000        0x0 /projects/hnd/tools/linux/hndtools-mipsel-linux-uclibc-4.2.3/lib/gcc/mipsel-linux-uclibc/4.2.3/crtend.o
 .text          0x0000000000000000        0x0 /projects/hnd/tools/linux/hndtools-mipsel-linux-uclibc-4.2.3/lib/gcc/mipsel-linux-uclibc/4.2.3/../../../../mipsel-linux-uclibc/lib/crtn.o
 .data          0x0000000000000000        0x0 /projects/hnd/tools/linux/hndtools-mipsel-linux-uclibc-4.2.3/lib/gcc/mipsel-linux-uclibc/4.2.3/../../../../mipsel-linux-uclibc/lib/crtn.o
 .bss           0x0000000000000000        0x0 /projects/hnd/tools/linux/hndtools-mipsel-linux-uclibc-4.2.3/lib/gcc/mipsel-linux-uclibc/4.2.3/../../../../mipsel-linux-uclibc/lib/crtn.o
 .reginfo       0x0000000000000000        0x0 /projects/hnd/tools/linux/hndtools-mipsel-linux-uclibc-4.2.3/lib/gcc/mipsel-linux-uclibc/4.2.3/../../../../mipsel-linux-uclibc/lib/crtn.o
 .pdr           0x0000000000000000        0x0 /projects/hnd/tools/linux/hndtools-mipsel-linux-uclibc-4.2.3/lib/gcc/mipsel-linux-uclibc/4.2.3/../../../../mipsel-linux-uclibc/lib/crtn.o

Memory Configuration

Name             Origin             Length             Attributes
*default*        0x0000000000000000 0xffffffffffffffff

Linker script and memory map

LOAD /projects/hnd/tools/linux/hndtools-mipsel-linux-uclibc-4.2.3/lib/gcc/mipsel-linux-uclibc/4.2.3/../../../../mipsel-linux-uclibc/lib/crt1.o
LOAD /projects/hnd/tools/linux/hndtools-mipsel-linux-uclibc-4.2.3/lib/gcc/mipsel-linux-uclibc/4.2.3/../../../../mipsel-linux-uclibc/lib/crti.o
LOAD /projects/hnd/tools/linux/hndtools-mipsel-linux-uclibc-4.2.3/lib/gcc/mipsel-linux-uclibc/4.2.3/crtbegin.o
START GROUP
LOAD applets/built-in.o
LOAD archival/lib.a
LOAD archival/libunarchive/lib.a
LOAD console-tools/lib.a
LOAD coreutils/lib.a
LOAD coreutils/libcoreutils/lib.a
LOAD debianutils/lib.a
LOAD e2fsprogs/lib.a
LOAD editors/lib.a
LOAD findutils/lib.a
LOAD init/lib.a
LOAD ipsvd/lib.a
LOAD libbb/lib.a
LOAD libpwdgrp/lib.a
LOAD loginutils/lib.a
LOAD miscutils/lib.a
LOAD modutils/lib.a
LOAD networking/lib.a
LOAD networking/libiproute/lib.a
LOAD networking/udhcp/lib.a
LOAD procps/lib.a
LOAD runit/lib.a
LOAD selinux/lib.a
LOAD shell/lib.a
LOAD sysklogd/lib.a
LOAD util-linux/lib.a
LOAD archival/built-in.o
LOAD archival/libunarchive/built-in.o
LOAD console-tools/built-in.o
LOAD coreutils/built-in.o
LOAD coreutils/libcoreutils/built-in.o
LOAD debianutils/built-in.o
LOAD e2fsprogs/built-in.o
LOAD editors/built-in.o
LOAD findutils/built-in.o
LOAD init/built-in.o
LOAD ipsvd/built-in.o
LOAD libbb/built-in.o
LOAD libpwdgrp/built-in.o
LOAD loginutils/built-in.o
LOAD miscutils/built-in.o
LOAD modutils/built-in.o
LOAD networking/built-in.o
LOAD networking/libiproute/built-in.o
LOAD networking/udhcp/built-in.o
LOAD procps/built-in.o
LOAD runit/built-in.o
LOAD selinux/built-in.o
LOAD shell/built-in.o
LOAD sysklogd/built-in.o
LOAD util-linux/built-in.o
END GROUP
START GROUP
LOAD /projects/hnd/tools/linux/hndtools-mipsel-linux-uclibc-4.2.3/lib/gcc/mipsel-linux-uclibc/4.2.3/../../../../mipsel-linux-uclibc/lib/libcrypt.so
END GROUP
LOAD /projects/hnd/tools/linux/hndtools-mipsel-linux-uclibc-4.2.3/lib/gcc/mipsel-linux-uclibc/4.2.3/libgcc.a
LOAD /projects/hnd/tools/linux/hndtools-mipsel-linux-uclibc-4.2.3/lib/gcc/mipsel-linux-uclibc/4.2.3/../../../../mipsel-linux-uclibc/lib/libgcc_s.so
LOAD /projects/hnd/tools/linux/hndtools-mipsel-linux-uclibc-4.2.3/lib/gcc/mipsel-linux-uclibc/4.2.3/../../../../mipsel-linux-uclibc/lib/libc.so
START GROUP
LOAD /projects/hnd/tools/linux/hndtools-mipsel-linux-uclibc-4.2.3/lib/libc.so.0
LOAD /projects/hnd/tools/linux/hndtools-mipsel-linux-uclibc-4.2.3/lib/uclibc_nonshared.a
END GROUP
LOAD /projects/hnd/tools/linux/hndtools-mipsel-linux-uclibc-4.2.3/lib/gcc/mipsel-linux-uclibc/4.2.3/libgcc.a
LOAD /projects/hnd/tools/linux/hndtools-mipsel-linux-uclibc-4.2.3/lib/gcc/mipsel-linux-uclibc/4.2.3/../../../../mipsel-linux-uclibc/lib/libgcc_s.so
LOAD /projects/hnd/tools/linux/hndtools-mipsel-linux-uclibc-4.2.3/lib/gcc/mipsel-linux-uclibc/4.2.3/crtend.o
LOAD /projects/hnd/tools/linux/hndtools-mipsel-linux-uclibc-4.2.3/lib/gcc/mipsel-linux-uclibc/4.2.3/../../../../mipsel-linux-uclibc/lib/crtn.o
                0x0000000000400000                PROVIDE (__executable_start, 0x400000)
                0x00000000004000f4                . = (0x400000 + SIZEOF_HEADERS)

.interp         0x00000000004000f4       0x14
 *(.interp)
 .interp        0x00000000004000f4       0x14 /projects/hnd/tools/linux/hndtools-mipsel-linux-uclibc-4.2.3/lib/gcc/mipsel-linux-uclibc/4.2.3/../../../../mipsel-linux-uclibc/lib/crt1.o

.reginfo
 *(.reginfo)

.dynamic        0x0000000000400108      0x100
 *(.dynamic)
 .dynamic       0x0000000000400108      0x100 /projects/hnd/tools/linux/hndtools-mipsel-linux-uclibc-4.2.3/lib/gcc/mipsel-linux-uclibc/4.2.3/../../../../mipsel-linux-uclibc/lib/crt1.o
                0x0000000000400108                _DYNAMIC

.hash           0x0000000000400208     0x11ec
 *(.hash)
 .hash          0x0000000000400208     0x11ec /projects/hnd/tools/linux/hndtools-mipsel-linux-uclibc-4.2.3/lib/gcc/mipsel-linux-uclibc/4.2.3/../../../../mipsel-linux-uclibc/lib/crt1.o

.dynsym         0x00000000004013f4     0x2700
 *(.dynsym)
 .dynsym        0x00000000004013f4     0x2700 /projects/hnd/tools/linux/hndtools-mipsel-linux-uclibc-4.2.3/lib/gcc/mipsel-linux-uclibc/4.2.3/../../../../mipsel-linux-uclibc/lib/crt1.o

.dynstr         0x0000000000403af4     0x19eb
 *(.dynstr)
 .dynstr        0x0000000000403af4     0x19eb /projects/hnd/tools/linux/hndtools-mipsel-linux-uclibc-4.2.3/lib/gcc/mipsel-linux-uclibc/4.2.3/../../../../mipsel-linux-uclibc/lib/crt1.o

.gnu.version    0x00000000004054e0      0x4e0
 *(.gnu.version)
 .gnu.version   0x00000000004054e0      0x4e0 /projects/hnd/tools/linux/hndtools-mipsel-linux-uclibc-4.2.3/lib/gcc/mipsel-linux-uclibc/4.2.3/../../../../mipsel-linux-uclibc/lib/crt1.o

.gnu.version_d  0x00000000004059c0        0x0
 *(.gnu.version_d)
 .gnu.version_d
                0x0000000000000000        0x0 /projects/hnd/tools/linux/hndtools-mipsel-linux-uclibc-4.2.3/lib/gcc/mipsel-linux-uclibc/4.2.3/../../../../mipsel-linux-uclibc/lib/crt1.o

.gnu.version_r  0x00000000004059c0       0x20
 *(.gnu.version_r)
 .gnu.version_r
                0x00000000004059c0       0x20 /projects/hnd/tools/linux/hndtools-mipsel-linux-uclibc-4.2.3/lib/gcc/mipsel-linux-uclibc/4.2.3/../../../../mipsel-linux-uclibc/lib/crt1.o

.rel.dyn        0x00000000004059e0        0x0
 *(.rel.init)
 *(.rel.text .rel.text.* .rel.gnu.linkonce.t.*)
 *(.rel.fini)
 *(.rel.rodata .rel.rodata.* .rel.gnu.linkonce.r.*)
 *(.rel.data.rel.ro* .rel.gnu.linkonce.d.rel.ro.*)
 *(.rel.data .rel.data.* .rel.gnu.linkonce.d.*)
 *(.rel.tdata .rel.tdata.* .rel.gnu.linkonce.td.*)
 *(.rel.tbss .rel.tbss.* .rel.gnu.linkonce.tb.*)
 *(.rel.ctors)
 *(.rel.dtors)
 *(.rel.got)
 *(.rel.sdata .rel.sdata.* .rel.gnu.linkonce.s.*)
 *(.rel.sbss .rel.sbss.* .rel.gnu.linkonce.sb.*)
 *(.rel.sdata2 .rel.sdata2.* .rel.gnu.linkonce.s2.*)
 *(.rel.sbss2 .rel.sbss2.* .rel.gnu.linkonce.sb2.*)
 *(.rel.bss .rel.bss.* .rel.gnu.linkonce.b.*)
 .rel.dyn       0x0000000000000000        0x0 /projects/hnd/tools/linux/hndtools-mipsel-linux-uclibc-4.2.3/lib/gcc/mipsel-linux-uclibc/4.2.3/../../../../mipsel-linux-uclibc/lib/crt1.o

.rela.dyn
 *(.rela.init)
 *(.rela.text .rela.text.* .rela.gnu.linkonce.t.*)
 *(.rela.fini)
 *(.rela.rodata .rela.rodata.* .rela.gnu.linkonce.r.*)
 *(.rela.data .rela.data.* .rela.gnu.linkonce.d.*)
 *(.rela.tdata .rela.tdata.* .rela.gnu.linkonce.td.*)
 *(.rela.tbss .rela.tbss.* .rela.gnu.linkonce.tb.*)
 *(.rela.ctors)
 *(.rela.dtors)
 *(.rela.got)
 *(.rela.sdata .rela.sdata.* .rela.gnu.linkonce.s.*)
 *(.rela.sbss .rela.sbss.* .rela.gnu.linkonce.sb.*)
 *(.rela.sdata2 .rela.sdata2.* .rela.gnu.linkonce.s2.*)
 *(.rela.sbss2 .rela.sbss2.* .rela.gnu.linkonce.sb2.*)
 *(.rela.bss .rela.bss.* .rela.gnu.linkonce.b.*)

.rel.plt
 *(.rel.plt)

.rela.plt
 *(.rela.plt)

.init           0x00000000004059e0       0x88
 *(.init)
 .init          0x00000000004059e0       0x1c /projects/hnd/tools/linux/hndtools-mipsel-linux-uclibc-4.2.3/lib/gcc/mipsel-linux-uclibc/4.2.3/../../../../mipsel-linux-uclibc/lib/crti.o
                0x00000000004059e0                _init
 .init          0x00000000004059fc       0x30 /projects/hnd/tools/linux/hndtools-mipsel-linux-uclibc-4.2.3/lib/gcc/mipsel-linux-uclibc/4.2.3/crtbegin.o
 .init          0x0000000000405a2c       0x30 /projects/hnd/tools/linux/hndtools-mipsel-linux-uclibc-4.2.3/lib/gcc/mipsel-linux-uclibc/4.2.3/crtend.o
 .init          0x0000000000405a5c        0xc /projects/hnd/tools/linux/hndtools-mipsel-linux-uclibc-4.2.3/lib/gcc/mipsel-linux-uclibc/4.2.3/../../../../mipsel-linux-uclibc/lib/crtn.o

.plt
 *(.plt)

.text           0x0000000000405a70    0x4e470
                0x0000000000405a70                _ftext = .
 *(.text .stub .text.* .gnu.linkonce.t.*)
 .text          0x0000000000405a70       0x60 /projects/hnd/tools/linux/hndtools-mipsel-linux-uclibc-4.2.3/lib/gcc/mipsel-linux-uclibc/4.2.3/../../../../mipsel-linux-uclibc/lib/crt1.o
                0x0000000000405a70                __start
 .text          0x0000000000405ad0      0x150 /projects/hnd/tools/linux/hndtools-mipsel-linux-uclibc-4.2.3/lib/gcc/mipsel-linux-uclibc/4.2.3/crtbegin.o
 .text.get_trimmed_slice
                0x0000000000405c20       0x7c applets/built-in.o
 .text.applet_name_compare
                0x0000000000405c9c       0x20 applets/built-in.o
 .text.find_applet_by_name
                0x0000000000405cbc       0x4c applets/built-in.o
                0x0000000000405cbc                find_applet_by_name
 .text.bb_show_usage
                0x0000000000405d08      0x180 applets/built-in.o
                0x0000000000405d08                bb_show_usage
 .text.run_current_applet_and_exit
                0x0000000000405e88      0x36c applets/built-in.o
                0x0000000000405e88                run_current_applet_and_exit
 .text.run_applet_and_exit
                0x00000000004061f4      0x24c applets/built-in.o
                0x00000000004061f4                run_applet_and_exit
 .text.main     0x0000000000406440      0x5bc applets/built-in.o
                0x0000000000406440                main
 .text.dealloc_bunzip
                0x00000000004069fc       0x58 archival/libunarchive/lib.a(decompress_bunzip2.o)
                0x00000000004069fc                dealloc_bunzip
 .text.get_bits
                0x0000000000406a54      0x130 archival/libunarchive/lib.a(decompress_bunzip2.o)
 .text.start_bunzip
                0x0000000000406b84      0x190 archival/libunarchive/lib.a(decompress_bunzip2.o)
                0x0000000000406b84                start_bunzip
 .text.get_next_block
                0x0000000000406d14      0xa50 archival/libunarchive/lib.a(decompress_bunzip2.o)
 .text.read_bunzip
                0x0000000000407764      0x1ec archival/libunarchive/lib.a(decompress_bunzip2.o)
                0x0000000000407764                read_bunzip
 .text.clear_main
                0x0000000000407950       0x44 console-tools/lib.a(clear.o)
                0x0000000000407950                clear_main
 .text.reset_main
                0x0000000000407994       0x5c console-tools/lib.a(reset.o)
                0x0000000000407994                reset_main
 .text.basename_main
                0x00000000004079f0      0x104 coreutils/lib.a(basename.o)
                0x00000000004079f0                basename_main
 .text.bb_cat   0x0000000000407af4      0x100 coreutils/lib.a(cat.o)
                0x0000000000407af4                bb_cat
 .text.cat_main
                0x0000000000407bf4       0x60 coreutils/lib.a(cat.o)
                0x0000000000407bf4                cat_main
 .text.chgrp_main
                0x0000000000407c54       0x9c coreutils/lib.a(chgrp.o)
                0x0000000000407c54                chgrp_main
 .text.chmod_main
                0x0000000000407cf0      0x16c coreutils/lib.a(chmod.o)
                0x0000000000407cf0                chmod_main
 .text.fileAction
                0x0000000000407e5c       0xfc coreutils/lib.a(chmod.o)
 .text.chown_main
                0x0000000000407f58      0x130 coreutils/lib.a(chown.o)
                0x0000000000407f58                chown_main
 .text.fileAction
                0x0000000000408088       0x90 coreutils/lib.a(chown.o)
 .text.cp_main  0x0000000000408118      0x1f0 coreutils/lib.a(cp.o)
                0x0000000000408118                cp_main
 .text.cmpfunc  0x0000000000408308       0x10 coreutils/lib.a(cut.o)
 .text.cut_file
                0x0000000000408318      0x574 coreutils/lib.a(cut.o)
 .text.cut_main
                0x000000000040888c      0x450 coreutils/lib.a(cut.o)
                0x000000000040888c                cut_main
 .text.octal_char_cast
                0x0000000000408cdc       0xa8 coreutils/lib.a(df.o)
                0x0000000000408cdc                octal_char_cast
 .text.df_main  0x0000000000408d84      0x4a8 coreutils/lib.a(df.o)
                0x0000000000408d84                df_main
 .text.dirname_main
                0x000000000040922c       0x7c coreutils/lib.a(dirname.o)
                0x000000000040922c                dirname_main
 .text.print    0x00000000004092a8       0x6c coreutils/lib.a(du.o)
 .text.du       0x0000000000409314      0x328 coreutils/lib.a(du.o)
 .text.du_main  0x000000000040963c      0x24c coreutils/lib.a(du.o)
                0x000000000040963c                du_main
 .text.bb_echo  0x0000000000409888      0x30c coreutils/lib.a(echo.o)
                0x0000000000409888                bb_echo
 .text.echo_main
                0x0000000000409b94       0x1c coreutils/lib.a(echo.o)
                0x0000000000409b94                echo_main
 .text.env_main
                0x0000000000409bb0      0x1f4 coreutils/lib.a(env.o)
                0x0000000000409bb0                env_main
 .text.null     0x0000000000409da4       0x5c coreutils/lib.a(expr.o)
 .text.int_value
                0x0000000000409e00       0x48 coreutils/lib.a(expr.o)
 .text.tostring
                0x0000000000409e48       0x64 coreutils/lib.a(expr.o)
 .text.str_value
                0x0000000000409eac       0x6c coreutils/lib.a(expr.o)
 .text.docolon  0x0000000000409f18      0x1b8 coreutils/lib.a(expr.o)
 .text.toarith  0x000000000040a0d0       0xa8 coreutils/lib.a(expr.o)
 .text.arithmetic_common
                0x000000000040a178      0x11c coreutils/lib.a(expr.o)
 .text.freev    0x000000000040a294       0x5c coreutils/lib.a(expr.o)
 .text.nextarg  0x000000000040a2f0       0x60 coreutils/lib.a(expr.o)
 .text.eval6    0x000000000040a350      0x4a8 coreutils/lib.a(expr.o)
 .text.eval5    0x000000000040a7f8      0x120 coreutils/lib.a(expr.o)
 .text.eval4    0x000000000040a918      0x17c coreutils/lib.a(expr.o)
 .text.eval3    0x000000000040aa94      0x160 coreutils/lib.a(expr.o)
 .text.eval2    0x000000000040abf4      0x2b8 coreutils/lib.a(expr.o)
 .text.eval1    0x000000000040aeac      0x154 coreutils/lib.a(expr.o)
 .text.eval     0x000000000040b000      0x114 coreutils/lib.a(expr.o)
 .text.expr_main
                0x000000000040b114       0xf8 coreutils/lib.a(expr.o)
                0x000000000040b114                expr_main
 .text.false_main
                0x000000000040b20c        0x8 coreutils/lib.a(false.o)
                0x000000000040b20c                false_main
 .text.head_main
                0x000000000040b214      0x378 coreutils/lib.a(head.o)
                0x000000000040b214                head_main
 .text.hostid_main
                0x000000000040b58c       0x7c coreutils/lib.a(hostid.o)
                0x000000000040b58c                hostid_main
 .text.printf_full
                0x000000000040b608       0x70 coreutils/lib.a(id.o)
 .text.id_main  0x000000000040b678      0x33c coreutils/lib.a(id.o)
                0x000000000040b678                id_main
 .text.ln_main  0x000000000040b9b4      0x374 coreutils/lib.a(ln.o)
                0x000000000040b9b4                ln_main
 .text.append_char
                0x000000000040bd28       0x88 coreutils/lib.a(ls.o)
 .text.count_dirs
                0x000000000040bdb0       0x98 coreutils/lib.a(ls.o)
 .text.my_stat  0x000000000040be48      0x108 coreutils/lib.a(ls.o)
 .text.dnalloc  0x000000000040bf50       0x2c coreutils/lib.a(ls.o)
 .text.splitdnarray
                0x000000000040bf7c      0x174 coreutils/lib.a(ls.o)
 .text.showfiles
                0x000000000040c0f0      0x840 coreutils/lib.a(ls.o)
 .text.dnsort   0x000000000040c930       0x20 coreutils/lib.a(ls.o)
 .text.sortcmp  0x000000000040c950      0x110 coreutils/lib.a(ls.o)
 .text.showdirs
                0x000000000040ca60      0x410 coreutils/lib.a(ls.o)
 .text.ls_main  0x000000000040ce70      0x50c coreutils/lib.a(ls.o)
                0x000000000040ce70                ls_main
 .text.mkdir_main
                0x000000000040d37c      0x124 coreutils/lib.a(mkdir.o)
                0x000000000040d37c                mkdir_main
 .text.mkfifo_main
                0x000000000040d4a0       0xe0 coreutils/lib.a(mkfifo.o)
                0x000000000040d4a0                mkfifo_main
 .text.mknod_main
                0x000000000040d580      0x194 coreutils/lib.a(mknod.o)
                0x000000000040d580                mknod_main
 .text.mv_main  0x000000000040d714      0x380 coreutils/lib.a(mv.o)
                0x000000000040d714                mv_main
 .text.multiconvert
                0x000000000040da94       0xcc coreutils/lib.a(printf.o)
 .text.my_xstrtod
                0x000000000040db60       0x48 coreutils/lib.a(printf.o)
 .text.my_xstrtol
                0x000000000040dba8       0x48 coreutils/lib.a(printf.o)
 .text.my_xstrtoul
                0x000000000040dbf0       0x48 coreutils/lib.a(printf.o)
 .text.conv_strtoul
                0x000000000040dc38       0x48 coreutils/lib.a(printf.o)
 .text.print_direc
                0x000000000040dc80      0x358 coreutils/lib.a(printf.o)
 .text.printf_main
                0x000000000040dfd8      0x5d8 coreutils/lib.a(printf.o)
                0x000000000040dfd8                printf_main
 .text.conv_strtol
                0x000000000040e5b0       0x48 coreutils/lib.a(printf.o)
 .text.conv_strtod
                0x000000000040e5f8       0x70 coreutils/lib.a(printf.o)
 .text.pwd_main
                0x000000000040e668       0x94 coreutils/lib.a(pwd.o)
                0x000000000040e668                pwd_main
 .text.rm_main  0x000000000040e6fc      0x184 coreutils/lib.a(rm.o)
                0x000000000040e6fc                rm_main
 .text.rmdir_main
                0x000000000040e880      0x150 coreutils/lib.a(rmdir.o)
                0x000000000040e880                rmdir_main
 .text.sleep_main
                0x000000000040e9d0       0xbc coreutils/lib.a(sleep.o)
                0x000000000040e9d0                sleep_main
 .text.eat_num  0x000000000040ea8c       0x48 coreutils/lib.a(tail.o)
 .text.tail_xprint_header
                0x000000000040ead4       0x58 coreutils/lib.a(tail.o)
 .text.tail_read
                0x000000000040eb2c      0x138 coreutils/lib.a(tail.o)
 .text.tail_main
                0x000000000040ec64      0x6ec coreutils/lib.a(tail.o)
                0x000000000040ec64                tail_main
 .text.t_lex    0x000000000040f350       0xa0 coreutils/lib.a(test.o)
 .text.syntax   0x000000000040f3f0       0x80 coreutils/lib.a(test.o)
 .text.getn     0x000000000040f470       0xc0 coreutils/lib.a(test.o)
 .text.binop    0x000000000040f530      0x2a8 coreutils/lib.a(test.o)
 .text.nexpr    0x000000000040f7d8      0x5b4 coreutils/lib.a(test.o)
 .text.aexpr    0x000000000040fd8c       0xe0 coreutils/lib.a(test.o)
 .text.oexpr    0x000000000040fe6c       0xe0 coreutils/lib.a(test.o)
 .text.test_main
                0x000000000040ff4c      0x32c coreutils/lib.a(test.o)
                0x000000000040ff4c                test_main
 .text.touch_main
                0x0000000000410278      0x148 coreutils/lib.a(touch.o)
                0x0000000000410278                touch_main
 .text.true_main
                0x00000000004103c0        0x8 coreutils/lib.a(true.o)
                0x00000000004103c0                true_main
 .text.uname_main
                0x00000000004103c8      0x204 coreutils/lib.a(uname.o)
                0x00000000004103c8                uname_main
 .text.usleep_main
                0x00000000004105cc       0x88 coreutils/lib.a(usleep.o)
                0x00000000004105cc                usleep_main
 .text.yes_main
                0x0000000000410654      0x164 coreutils/lib.a(yes.o)
                0x0000000000410654                yes_main
 .text.cp_mv_stat2
                0x00000000004107b8       0xb0 coreutils/libcoreutils/lib.a(cp_mv_stat.o)
                0x00000000004107b8                cp_mv_stat2
 .text.cp_mv_stat
                0x0000000000410868       0x20 coreutils/libcoreutils/lib.a(cp_mv_stat.o)
                0x0000000000410868                cp_mv_stat
 .text.getopt_mk_fifo_nod
                0x0000000000410888       0x90 coreutils/libcoreutils/lib.a(getopt_mk_fifo_nod.o)
                0x0000000000410888                getopt_mk_fifo_nod
 .text.func_type
                0x0000000000410918       0x18 findutils/lib.a(find.o)
 .text.func_prune
                0x0000000000410930        0x8 findutils/lib.a(find.o)
 .text.alloc_action.6831
                0x0000000000410938       0xf0 findutils/lib.a(find.o)
 .text.parse_params
                0x0000000000410a28      0x478 findutils/lib.a(find.o)
 .text.find_main
                0x0000000000410ea0      0x1a8 findutils/lib.a(find.o)
                0x0000000000410ea0                find_main
 .text.func_regex
                0x0000000000411048       0x84 findutils/lib.a(find.o)
 .text.func_path
                0x00000000004110cc       0x40 findutils/lib.a(find.o)
 .text.func_name
                0x000000000041110c       0xb0 findutils/lib.a(find.o)
 .text.func_exec
                0x00000000004111bc      0x248 findutils/lib.a(find.o)
 .text.fileAction
                0x0000000000411404      0x118 findutils/lib.a(find.o)
 .text.func_print
                0x000000000041151c       0x3c findutils/lib.a(find.o)
 .text.add_grep_list_data
                0x0000000000411558       0x48 findutils/lib.a(grep.o)
 .text.print_line
                0x00000000004115a0      0x180 findutils/lib.a(grep.o)
 .text.grep_file
                0x0000000000411720      0x558 findutils/lib.a(grep.o)
 .text.grep_main
                0x0000000000411c78      0x6a0 findutils/lib.a(grep.o)
                0x0000000000411c78                grep_main
 .text.file_action_grep
                0x0000000000412318       0xfc findutils/lib.a(grep.o)
 .text.xargs_main
                0x0000000000412414      0x690 findutils/lib.a(xargs.o)
                0x0000000000412414                xargs_main
 .text.process0_stdin
                0x0000000000412aa4      0x1f0 findutils/lib.a(xargs.o)
 .text.process_stdin
                0x0000000000412c94      0x340 findutils/lib.a(xargs.o)
 .text.halt_main
                0x0000000000412fd4      0x128 init/lib.a(halt.o)
                0x0000000000412fd4                halt_main
 .text.bb_ask_confirmation
                0x00000000004130fc      0x108 libbb/lib.a(ask_confirmation.o)
                0x00000000004130fc                bb_ask_confirmation
 .text.bb_basename
                0x0000000000413204       0x50 libbb/lib.a(bb_basename.o)
                0x0000000000413204                bb_basename
 .text.get_ug_id
                0x0000000000413254       0x8c libbb/lib.a(bb_pwd.o)
                0x0000000000413254                get_ug_id
 .text.xuname2uid
                0x00000000004132e0       0x60 libbb/lib.a(bb_pwd.o)
                0x00000000004132e0                xuname2uid
 .text.xgroup2gid
                0x0000000000413340       0x60 libbb/lib.a(bb_pwd.o)
                0x0000000000413340                xgroup2gid
 .text.bb_getug
                0x00000000004133a0       0xa8 libbb/lib.a(bb_pwd.o)
 .text.bb_getgrgid
                0x0000000000413448       0x88 libbb/lib.a(bb_pwd.o)
                0x0000000000413448                bb_getgrgid
 .text.bb_getpwuid
                0x00000000004134d0       0x88 libbb/lib.a(bb_pwd.o)
                0x00000000004134d0                bb_getpwuid
 .text.ret_ERANGE
                0x0000000000413558       0x28 libbb/lib.a(bb_strtonum.o)
 .text.handle_errors
                0x0000000000413580       0xcc libbb/lib.a(bb_strtonum.o)
 .text.bb_strtol
                0x000000000041364c       0xdc libbb/lib.a(bb_strtonum.o)
                0x000000000041364c                bb_strtol
 .text.bb_strtoul
                0x0000000000413728       0xc8 libbb/lib.a(bb_strtonum.o)
                0x0000000000413728                bb_strtoul
 .text.bb_strtoull
                0x00000000004137f0       0xc4 libbb/lib.a(bb_strtonum.o)
                0x00000000004137f0                bb_strtoull
 .text.index_in_strings
                0x00000000004138b4       0xa0 libbb/lib.a(compare_string_array.o)
                0x00000000004138b4                index_in_strings
 .text.concat_path_file
                0x0000000000413954       0xb0 libbb/lib.a(concat_path_file.o)
                0x0000000000413954                concat_path_file
 .text.concat_subpath_file
                0x0000000000413a04       0x64 libbb/lib.a(concat_subpath_file.o)
                0x0000000000413a04                concat_subpath_file
 .text.ask_and_unlink
                0x0000000000413a68       0xb8 libbb/lib.a(copy_file.o)
 .text.copy_file
                0x0000000000413b20      0x93c libbb/lib.a(copy_file.o)
                0x0000000000413b20                copy_file
 .text.bb_full_fd_action
                0x000000000041445c      0x194 libbb/lib.a(copyfd.o)
 .text.bb_copyfd_eof
                0x00000000004145f0       0x24 libbb/lib.a(copyfd.o)
                0x00000000004145f0                bb_copyfd_eof
 .text.crc32_filltable
                0x0000000000414614       0xdc libbb/lib.a(crc32.o)
                0x0000000000414614                crc32_filltable
 .text.bb_error_msg
                0x00000000004146f0       0x50 libbb/lib.a(error_msg.o)
                0x00000000004146f0                bb_error_msg
 .text.xfunc_die
                0x0000000000414740       0x5c libbb/lib.a(error_msg_and_die.o)
                0x0000000000414740                xfunc_die
 .text.bb_error_msg_and_die
                0x000000000041479c       0x54 libbb/lib.a(error_msg_and_die.o)
                0x000000000041479c                bb_error_msg_and_die
 .text.fclose_if_not_stdin
                0x00000000004147f0       0x3c libbb/lib.a(fclose_nonstdin.o)
                0x00000000004147f0                fclose_if_not_stdin
 .text.fflush_stdout_and_exit
                0x000000000041482c       0x64 libbb/lib.a(fflush_stdout_and_exit.o)
                0x000000000041482c                fflush_stdout_and_exit
 .text.find_mount_point
                0x0000000000414890      0x1dc libbb/lib.a(find_mount_point.o)
                0x0000000000414890                find_mount_point
 .text.find_block_device_in_dir
                0x0000000000414a6c      0x1ec libbb/lib.a(find_root_device.o)
 .text.find_block_device
                0x0000000000414c58       0xac libbb/lib.a(find_root_device.o)
                0x0000000000414c58                find_block_device
 .text.full_write
                0x0000000000414d04       0x88 libbb/lib.a(full_write.o)
                0x0000000000414d04                full_write
 .text.bb_get_last_path_component
                0x0000000000414d8c       0x60 libbb/lib.a(get_last_path_component.o)
                0x0000000000414d8c                bb_get_last_path_component
 .text.bb_get_chunk_from_file
                0x0000000000414dec      0x148 libbb/lib.a(get_line_from_file.o)
                0x0000000000414dec                bb_get_chunk_from_file
 .text.xmalloc_getline
                0x0000000000414f34       0x68 libbb/lib.a(get_line_from_file.o)
                0x0000000000414f34                xmalloc_getline
 .text.xmalloc_fgets
                0x0000000000414f9c       0x3c libbb/lib.a(get_line_from_file.o)
                0x0000000000414f9c                xmalloc_fgets
 .text.getopt32
                0x0000000000414fd8      0x77c libbb/lib.a(getopt32.o)
                0x0000000000414fd8                getopt32
 .text.make_human_readable_str
                0x0000000000415754      0x19c libbb/lib.a(human_readable.o)
                0x0000000000415754                make_human_readable_str
 .text.is_in_ino_dev_hashtable
                0x00000000004158f0       0xf0 libbb/lib.a(inode_hash.o)
                0x00000000004158f0                is_in_ino_dev_hashtable
 .text.add_to_ino_dev_hashtable
                0x00000000004159e0      0x12c libbb/lib.a(inode_hash.o)
                0x00000000004159e0                add_to_ino_dev_hashtable
 .text.is_directory
                0x0000000000415b0c       0x7c libbb/lib.a(isdirectory.o)
                0x0000000000415b0c                is_directory
 .text.last_char_is
                0x0000000000415b88       0x7c libbb/lib.a(last_char_is.o)
                0x0000000000415b88                last_char_is
 .text.llist_add_to_end
                0x0000000000415c04       0x80 libbb/lib.a(llist.o)
                0x0000000000415c04                llist_add_to_end
 .text.llist_add_to
                0x0000000000415c84       0x5c libbb/lib.a(llist.o)
                0x0000000000415c84                llist_add_to
 .text.bb_make_directory
                0x0000000000415ce0      0x264 libbb/lib.a(make_directory.o)
                0x0000000000415ce0                bb_make_directory
 .text.bb_makedev
                0x0000000000415f44       0x58 libbb/lib.a(makedev.o)
                0x0000000000415f44                bb_makedev
 .text.bb_mode_string
                0x0000000000415f9c       0xcc libbb/lib.a(mode_string.o)
                0x0000000000415f9c                bb_mode_string
 .text.bb_parse_mode
                0x0000000000416068      0x318 libbb/lib.a(parse_mode.o)
                0x0000000000416068                bb_parse_mode
 .text.bb_perror_msg
                0x0000000000416380       0x8c libbb/lib.a(perror_msg.o)
                0x0000000000416380                bb_perror_msg
 .text.bb_perror_msg_and_die
                0x000000000041640c       0x8c libbb/lib.a(perror_msg_and_die.o)
                0x000000000041640c                bb_perror_msg_and_die
 .text.bb_perror_nomsg_and_die
                0x0000000000416498       0x1c libbb/lib.a(perror_nomsg_and_die.o)
                0x0000000000416498                bb_perror_nomsg_and_die
 .text.bb_process_escape_sequence
                0x00000000004164b4      0x10c libbb/lib.a(process_escape_sequence.o)
                0x00000000004164b4                bb_process_escape_sequence
 .text.fast_strtoul_10
                0x00000000004165c0       0x48 libbb/lib.a(procps.o)
 .text.skip_fields
                0x0000000000416608       0x24 libbb/lib.a(procps.o)
 .text.read_cmdline
                0x000000000041662c       0xf0 libbb/lib.a(procps.o)
                0x000000000041662c                read_cmdline
 .text.clear_cache
                0x000000000041671c       0x4c libbb/lib.a(procps.o)
 .text.clear_username_cache
                0x0000000000416768       0x54 libbb/lib.a(procps.o)
                0x0000000000416768                clear_username_cache
 .text.read_to_buf
                0x00000000004167bc       0xa8 libbb/lib.a(procps.o)
 .text.free_procps_scan
                0x0000000000416864       0x70 libbb/lib.a(procps.o)
                0x0000000000416864                free_procps_scan
 .text.alloc_procps_scan
                0x00000000004168d4       0x64 libbb/lib.a(procps.o)
                0x00000000004168d4                alloc_procps_scan
 .text.procps_scan
                0x0000000000416938      0x3f8 libbb/lib.a(procps.o)
                0x0000000000416938                procps_scan
 .text.get_cached
                0x0000000000416d30       0xcc libbb/lib.a(procps.o)
 .text.get_cached_groupname
                0x0000000000416dfc       0x28 libbb/lib.a(procps.o)
                0x0000000000416dfc                get_cached_groupname
 .text.get_cached_username
                0x0000000000416e24       0x28 libbb/lib.a(procps.o)
                0x0000000000416e24                get_cached_username
 .text.safe_read
                0x0000000000416e4c       0x8c libbb/lib.a(read.o)
                0x0000000000416e4c                safe_read
 .text.full_read
                0x0000000000416ed8       0x90 libbb/lib.a(read.o)
                0x0000000000416ed8                full_read
 .text.read_close
                0x0000000000416f68       0x64 libbb/lib.a(read.o)
                0x0000000000416f68                read_close
 .text.xmalloc_open_read_close
                0x0000000000416fcc      0x174 libbb/lib.a(read.o)
                0x0000000000416fcc                xmalloc_open_read_close
 .text.open_read_close
                0x0000000000417140       0x74 libbb/lib.a(read.o)
                0x0000000000417140                open_read_close
 .text.true_action
                0x00000000004171b4        0x8 libbb/lib.a(recursive_action.o)
 .text.recursive_action
                0x00000000004171bc      0x28c libbb/lib.a(recursive_action.o)
                0x00000000004171bc                recursive_action
 .text.remove_file
                0x0000000000417448      0x388 libbb/lib.a(remove_file.o)
                0x0000000000417448                remove_file
 .text.safe_strncpy
                0x00000000004177d0       0x34 libbb/lib.a(safe_strncpy.o)
                0x00000000004177d0                safe_strncpy
 .text.safe_write
                0x0000000000417804       0x8c libbb/lib.a(safe_write.o)
                0x0000000000417804                safe_write
 .text.skip_non_whitespace
                0x0000000000417890       0x64 libbb/lib.a(skip_whitespace.o)
                0x0000000000417890                skip_non_whitespace
 .text.skip_whitespace
                0x00000000004178f4       0x54 libbb/lib.a(skip_whitespace.o)
                0x00000000004178f4                skip_whitespace
 .text.bb_verror_msg
                0x0000000000417948      0x26c libbb/lib.a(verror_msg.o)
                0x0000000000417948                bb_verror_msg
 .text.forkexit_or_rexec
                0x0000000000417bb4       0x70 libbb/lib.a(vfork_daemon_rexec.o)
                0x0000000000417bb4                forkexit_or_rexec
 .text.bb_daemonize_or_rexec
                0x0000000000417c24      0x1ac libbb/lib.a(vfork_daemon_rexec.o)
                0x0000000000417c24                bb_daemonize_or_rexec
 .text.wait4pid
                0x0000000000417dd0       0x98 libbb/lib.a(vfork_daemon_rexec.o)
                0x0000000000417dd0                wait4pid
 .text.spawn    0x0000000000417e68       0xb4 libbb/lib.a(vfork_daemon_rexec.o)
                0x0000000000417e68                spawn
 .text.spawn_and_wait
                0x0000000000417f1c       0x40 libbb/lib.a(vfork_daemon_rexec.o)
                0x0000000000417f1c                spawn_and_wait
 .text.fopen_or_warn
                0x0000000000417f5c       0x84 libbb/lib.a(wfopen.o)
                0x0000000000417f5c                fopen_or_warn
 .text.fopen_or_warn_stdin
                0x0000000000417fe0       0x70 libbb/lib.a(wfopen_input.o)
                0x0000000000417fe0                fopen_or_warn_stdin
 .text.xstrtoul_range_sfx
                0x0000000000418050      0x1bc libbb/lib.a(xatonum.o)
                0x0000000000418050                xstrtoul_range_sfx
 .text.xatoul_sfx
                0x000000000041820c       0x44 libbb/lib.a(xatonum.o)
                0x000000000041820c                xatoul_sfx
 .text.xatoul   0x0000000000418250       0x1c libbb/lib.a(xatonum.o)
                0x0000000000418250                xatoul
 .text.xatoul_range
                0x000000000041826c       0x44 libbb/lib.a(xatonum.o)
                0x000000000041826c                xatoul_range
 .text.xatou16  0x00000000004182b0       0x3c libbb/lib.a(xatonum.o)
                0x00000000004182b0                xatou16
 .text.xatoul_range_sfx
                0x00000000004182ec       0x48 libbb/lib.a(xatonum.o)
                0x00000000004182ec                xatoul_range_sfx
 .text.xatoi_u  0x0000000000418334       0x20 libbb/lib.a(xatonum.o)
                0x0000000000418334                xatoi_u
 .text.utoa_to_buf
                0x0000000000418354       0x8c libbb/lib.a(xfuncs.o)
                0x0000000000418354                utoa_to_buf
 .text.itoa_to_buf
                0x00000000004183e0       0x3c libbb/lib.a(xfuncs.o)
                0x00000000004183e0                itoa_to_buf
 .text.itoa     0x000000000041841c       0x4c libbb/lib.a(xfuncs.o)
                0x000000000041841c                itoa
 .text.bb_xioctl
                0x0000000000418468       0x5c libbb/lib.a(xfuncs.o)
                0x0000000000418468                bb_xioctl
 .text.bb_ioctl_or_warn
                0x00000000004184c4       0x6c libbb/lib.a(xfuncs.o)
                0x00000000004184c4                bb_ioctl_or_warn
 .text.ioctl_or_perror
                0x0000000000418530       0x94 libbb/lib.a(xfuncs.o)
                0x0000000000418530                ioctl_or_perror
 .text.ioctl_or_perror_and_die
                0x00000000004185c4       0x9c libbb/lib.a(xfuncs.o)
                0x00000000004185c4                ioctl_or_perror_and_die
 .text.get_terminal_width_height
                0x0000000000418660      0x160 libbb/lib.a(xfuncs.o)
                0x0000000000418660                get_terminal_width_height
 .text.xstat    0x00000000004187c0       0x5c libbb/lib.a(xfuncs.o)
                0x00000000004187c0                xstat
 .text.xlisten  0x000000000041881c       0x58 libbb/lib.a(xfuncs.o)
                0x000000000041881c                xlisten
 .text.xbind    0x0000000000418874       0x58 libbb/lib.a(xfuncs.o)
                0x0000000000418874                xbind
 .text.xsocket  0x00000000004188cc       0x58 libbb/lib.a(xfuncs.o)
                0x00000000004188cc                xsocket
 .text.xopendir
                0x0000000000418924       0x5c libbb/lib.a(xfuncs.o)
                0x0000000000418924                xopendir
 .text.warn_opendir
                0x0000000000418980       0x6c libbb/lib.a(xfuncs.o)
                0x0000000000418980                warn_opendir
 .text.xchdir   0x00000000004189ec       0x5c libbb/lib.a(xfuncs.o)
                0x00000000004189ec                xchdir
 .text.xasprintf
                0x0000000000418a48       0x74 libbb/lib.a(xfuncs.o)
                0x0000000000418a48                xasprintf
 .text.xlseek   0x0000000000418abc       0x9c libbb/lib.a(xfuncs.o)
                0x0000000000418abc                xlseek
 .text.xsetuid  0x0000000000418b58       0x58 libbb/lib.a(xfuncs.o)
                0x0000000000418b58                xsetuid
 .text.xsetgid  0x0000000000418bb0       0x58 libbb/lib.a(xfuncs.o)
                0x0000000000418bb0                xsetgid
 .text.xsetenv  0x0000000000418c08       0x58 libbb/lib.a(xfuncs.o)
                0x0000000000418c08                xsetenv
 .text.die_if_ferror
                0x0000000000418c60       0x5c libbb/lib.a(xfuncs.o)
                0x0000000000418c60                die_if_ferror
 .text.die_if_ferror_stdout
                0x0000000000418cbc       0x28 libbb/lib.a(xfuncs.o)
                0x0000000000418cbc                die_if_ferror_stdout
 .text.xwrite   0x0000000000418ce4       0x64 libbb/lib.a(xfuncs.o)
                0x0000000000418ce4                xwrite
 .text.xdup2    0x0000000000418d48       0x5c libbb/lib.a(xfuncs.o)
                0x0000000000418d48                xdup2
 .text.xmove_fd
                0x0000000000418da4       0x60 libbb/lib.a(xfuncs.o)
                0x0000000000418da4                xmove_fd
 .text.ndelay_off
                0x0000000000418e04       0x64 libbb/lib.a(xfuncs.o)
                0x0000000000418e04                ndelay_off
 .text.ndelay_on
                0x0000000000418e68       0x60 libbb/lib.a(xfuncs.o)
                0x0000000000418e68                ndelay_on
 .text.open3_or_warn
                0x0000000000418ec8       0x6c libbb/lib.a(xfuncs.o)
                0x0000000000418ec8                open3_or_warn
 .text.open_or_warn
                0x0000000000418f34       0x1c libbb/lib.a(xfuncs.o)
                0x0000000000418f34                open_or_warn
 .text.xopen3   0x0000000000418f50       0x5c libbb/lib.a(xfuncs.o)
                0x0000000000418f50                xopen3
 .text.xopen    0x0000000000418fac       0x1c libbb/lib.a(xfuncs.o)
                0x0000000000418fac                xopen
 .text.xfopen   0x0000000000418fc8       0x5c libbb/lib.a(xfuncs.o)
                0x0000000000418fc8                xfopen
 .text.xstrdup  0x0000000000419024       0x60 libbb/lib.a(xfuncs.o)
                0x0000000000419024                xstrdup
 .text.xrealloc
                0x0000000000419084       0x64 libbb/lib.a(xfuncs.o)
                0x0000000000419084                xrealloc
 .text.xmalloc  0x00000000004190e8       0x64 libbb/lib.a(xfuncs.o)
                0x00000000004190e8                xmalloc
 .text.xstrndup
                0x000000000041914c       0x90 libbb/lib.a(xfuncs.o)
                0x000000000041914c                xstrndup
 .text.xzalloc  0x00000000004191dc       0x68 libbb/lib.a(xfuncs.o)
                0x00000000004191dc                xzalloc
 .text.malloc_or_warn
                0x0000000000419244       0x74 libbb/lib.a(xfuncs.o)
                0x0000000000419244                malloc_or_warn
 .text.xrealloc_getcwd_or_warn
                0x00000000004192b8       0xec libbb/lib.a(xgetcwd.o)
                0x00000000004192b8                xrealloc_getcwd_or_warn
 .text.xmalloc_readlink
                0x00000000004193a4       0xbc libbb/lib.a(xreadlink.o)
                0x00000000004193a4                xmalloc_readlink
 .text.xmalloc_readlink_or_warn
                0x0000000000419460       0x6c libbb/lib.a(xreadlink.o)
                0x0000000000419460                xmalloc_readlink_or_warn
 .text.regcomp_or_errmsg
                0x00000000004194cc       0xd0 libbb/lib.a(xregcomp.o)
                0x00000000004194cc                regcomp_or_errmsg
 .text.xregcomp
                0x000000000041959c       0x58 libbb/lib.a(xregcomp.o)
                0x000000000041959c                xregcomp
 .text.get_uidgid
                0x00000000004195f4      0x1e0 libpwdgrp/lib.a(uidgid_get.o)
                0x00000000004195f4                get_uidgid
 .text.parse_chown_usergroup_or_die
                0x00000000004197d4      0x134 libpwdgrp/lib.a(uidgid_get.o)
                0x00000000004197d4                parse_chown_usergroup_or_die
 .text.addgroup_main
                0x0000000000419908      0x1b0 loginutils/lib.a(addgroup.o)
                0x0000000000419908                addgroup_main
 .text.adduser_main
                0x0000000000419ab8      0x5c0 loginutils/lib.a(adduser.o)
                0x0000000000419ab8                adduser_main
 .text.del_line_matching
                0x000000000041a078      0x338 loginutils/lib.a(deluser.o)
 .text.deluser_main
                0x000000000041a3b0      0x104 loginutils/lib.a(deluser.o)
                0x000000000041a3b0                deluser_main
 .text.bcode    0x000000000041a4b4       0x80 loginutils/lib.a(getty.o)
 .text.parse_speeds
                0x000000000041a534       0xf8 loginutils/lib.a(getty.o)
 .text.getty_main
                0x000000000041a62c      0xce0 loginutils/lib.a(getty.o)
                0x000000000041a62c                getty_main
 .text.login_main
                0x000000000041b30c      0x6b8 loginutils/lib.a(login.o)
                0x000000000041b30c                login_main
 .text.alarm_handler
                0x000000000041b9c4       0x78 loginutils/lib.a(login.o)
 .text.nuke_str
                0x000000000041ba3c       0x68 loginutils/lib.a(passwd.o)
 .text.passwd_main
                0x000000000041baa4      0x730 loginutils/lib.a(passwd.o)
                0x000000000041baa4                passwd_main
 .text.su_main  0x000000000041c1d4      0x23c loginutils/lib.a(su.o)
                0x000000000041c1d4                su_main
 .text.sulogin_main
                0x000000000041c410      0x408 loginutils/lib.a(sulogin.o)
                0x000000000041c410                sulogin_main
 .text.catchalarm
                0x000000000041c818       0x28 loginutils/lib.a(sulogin.o)
 .text.print_hilite
                0x000000000041c840       0x24 miscutils/lib.a(less.o)
 .text.clear_line
                0x000000000041c864       0x2c miscutils/lib.a(less.o)
 .text.print_statusline
                0x000000000041c890       0x64 miscutils/lib.a(less.o)
 .text.read_lines
                0x000000000041c8f4      0x4b0 miscutils/lib.a(less.o)
 .text.print_ascii
                0x000000000041cda4      0x1c4 miscutils/lib.a(less.o)
 .text.buffer_print
                0x000000000041cf68      0x1c4 miscutils/lib.a(less.o)
 .text.buffer_fill_and_print
                0x000000000041d12c       0xb4 miscutils/lib.a(less.o)
 .text.reinitialize
                0x000000000041d1e0      0x150 miscutils/lib.a(less.o)
 .text.change_file
                0x000000000041d330       0xe4 miscutils/lib.a(less.o)
 .text.buffer_line
                0x000000000041d414       0x90 miscutils/lib.a(less.o)
 .text.buffer_up
                0x000000000041d4a4       0x70 miscutils/lib.a(less.o)
 .text.buffer_down
                0x000000000041d514       0xc4 miscutils/lib.a(less.o)
 .text.set_tty_cooked
                0x000000000041d5d8       0x54 miscutils/lib.a(less.o)
 .text.less_gets
                0x000000000041d62c      0x200 miscutils/lib.a(less.o)
 .text.examine_file
                0x000000000041d82c       0xa8 miscutils/lib.a(less.o)
 .text.less_getch
                0x000000000041d8d4      0x2d8 miscutils/lib.a(less.o)
 .text.less_exit
                0x000000000041dbac       0x98 miscutils/lib.a(less.o)
 .text.less_main
                0x000000000041dc44      0xaf0 miscutils/lib.a(less.o)
                0x000000000041dc44                less_main
 .text.sig_catcher
                0x000000000041e734       0x44 miscutils/lib.a(less.o)
 .text.obj_find_symbol
                0x000000000041e778       0xb4 modutils/lib.a(insmod.o)
 .text.obj_symbol_final_value
                0x000000000041e82c       0x50 modutils/lib.a(insmod.o)
 .text.obj_elf_hash
                0x000000000041e87c       0x88 modutils/lib.a(insmod.o)
 .text.obj_extend_section
                0x000000000041e904       0x64 modutils/lib.a(insmod.o)
 .text.insmod_ng_main
                0x000000000041e968      0x22c modutils/lib.a(insmod.o)
                0x000000000041e968                insmod_ng_main
 .text.obj_load_order_prio
                0x000000000041eb94       0xd8 modutils/lib.a(insmod.o)
 .text.obj_insert_section_load_order
                0x000000000041ec6c       0xac modutils/lib.a(insmod.o)
 .text.obj_find_section
                0x000000000041ed18       0x9c modutils/lib.a(insmod.o)
 .text.obj_symbol_patch
                0x000000000041edb4       0x80 modutils/lib.a(insmod.o)
 .text.arch_new_symbol
                0x000000000041ee34       0x60 modutils/lib.a(insmod.o)
 .text.obj_add_symbol
                0x000000000041ee94      0x2d8 modutils/lib.a(insmod.o)
 .text.arch_new_section
                0x000000000041f16c       0x1c modutils/lib.a(insmod.o)
 .text.obj_create_alloced_section
                0x000000000041f188      0x128 modutils/lib.a(insmod.o)
 .text.obj_load
                0x000000000041f2b0      0x644 modutils/lib.a(insmod.o)
 .text.obj_allocate_commons
                0x000000000041f8f4      0x3a0 modutils/lib.a(insmod.o)
 .text.obj_gpl_license
                0x000000000041fc94      0x140 modutils/lib.a(insmod.o)
 .text.get_modinfo_value
                0x000000000041fdd4      0x150 modutils/lib.a(insmod.o)
 .text.add_symbols_from
                0x000000000041ff24      0x168 modutils/lib.a(insmod.o)
 .text.obj_string_patch
                0x000000000042008c      0x138 modutils/lib.a(insmod.o)
 .text.new_create_module_ksymtab
                0x00000000004201c4      0x310 modutils/lib.a(insmod.o)
 .text.new_add_ksymtab
                0x00000000004204d4      0x138 modutils/lib.a(insmod.o)
 .text.new_process_module_arguments
                0x000000000042060c      0x6f8 modutils/lib.a(insmod.o)
 .text.set_tainted
                0x0000000000420d04      0x134 modutils/lib.a(insmod.o)
 .text.print_load_map
                0x0000000000420e38      0x360 modutils/lib.a(insmod.o)
 .text.insmod_main
                0x0000000000421198     0x1acc modutils/lib.a(insmod.o)
                0x0000000000421198                insmod_main
 .text.check_module_name_match
                0x0000000000422c64      0x100 modutils/lib.a(insmod.o)
 .text.lsmod_main
                0x0000000000422d64      0x378 modutils/lib.a(lsmod.o)
                0x0000000000422d64                lsmod_main
 .text.rmmod_main
                0x00000000004230dc      0x22c modutils/lib.a(rmmod.o)
                0x00000000004230dc                rmmod_main
 .text.arp_main
                0x0000000000423308      0xdb8 networking/lib.a(arp.o)
                0x0000000000423308                arp_main
 .text.ifconfig_main
                0x00000000004240c0      0x778 networking/lib.a(ifconfig.o)
                0x00000000004240c0                ifconfig_main
 .text.get_afntype
                0x0000000000424838       0x40 networking/lib.a(interface.o)
 .text.hexchar2int
                0x0000000000424878       0x3c networking/lib.a(interface.o)
 .text.in_ether
                0x00000000004248b4      0x124 networking/lib.a(interface.o)
 .text.get_hwntype
                0x00000000004249d8       0x40 networking/lib.a(interface.o)
                0x00000000004249d8                get_hwntype
 .text.get_hwtype
                0x0000000000424a18       0x7c networking/lib.a(interface.o)
                0x0000000000424a18                get_hwtype
 .text.get_aftype
                0x0000000000424a94       0x7c networking/lib.a(interface.o)
                0x0000000000424a94                get_aftype
 .text.add_interface
                0x0000000000424b10      0x100 networking/lib.a(interface.o)
 .text.if_readconf
                0x0000000000424c10      0x15c networking/lib.a(interface.o)
 .text.if_readlist_proc
                0x0000000000424d6c      0x408 networking/lib.a(interface.o)
 .text.do_if_fetch
                0x0000000000425174      0x560 networking/lib.a(interface.o)
 .text.print_bytes_scaled
                0x00000000004256d4       0xcc networking/lib.a(interface.o)
 .text.UNSPEC_print
                0x00000000004257a0       0xa4 networking/lib.a(interface.o)
 .text.UNSPEC_sprint
                0x0000000000425844       0x48 networking/lib.a(interface.o)
 .text.INET6_input
                0x000000000042588c       0x1c networking/lib.a(interface.o)
 .text.INET_input
                0x00000000004258a8       0x1c networking/lib.a(interface.o)
 .text.INET_sprint
                0x00000000004258c4       0x98 networking/lib.a(interface.o)
 .text.INET6_sprint
                0x000000000042595c       0x98 networking/lib.a(interface.o)
 .text.ife_print
                0x00000000004259f4      0x950 networking/lib.a(interface.o)
 .text.display_interfaces
                0x0000000000426344      0x1bc networking/lib.a(interface.o)
                0x0000000000426344                display_interfaces
 .text.pr_ether
                0x0000000000426500       0x8c networking/lib.a(interface.o)
 .text.do_info  0x000000000042658c      0x138 networking/lib.a(netstat.o)
 .text.netstat_main
                0x00000000004266c4      0x444 networking/lib.a(netstat.o)
                0x00000000004266c4                netstat_main
 .text.build_ipv4_addr
                0x0000000000426b08       0x50 networking/lib.a(netstat.o)
 .text.unix_do_one
                0x0000000000426b58      0x418 networking/lib.a(netstat.o)
 .text.build_ipv6_addr
                0x0000000000426f70       0xb0 networking/lib.a(netstat.o)
 .text.ip_port_str
                0x0000000000427020      0x12c networking/lib.a(netstat.o)
 .text.raw_do_one
                0x000000000042714c      0x2ac networking/lib.a(netstat.o)
 .text.udp_do_one
                0x00000000004273f8      0x2c8 networking/lib.a(netstat.o)
 .text.tcp_do_one
                0x00000000004276c0      0x254 networking/lib.a(netstat.o)
 .text.in_cksum
                0x0000000000427914       0x6c networking/lib.a(ping.o)
 .text.pingstats
                0x0000000000427980      0x5ec networking/lib.a(ping.o)
 .text.fast_ping
                0x0000000000427f6c      0x178 networking/lib.a(ping.o)
 .text.sendping
                0x00000000004280e4      0x240 networking/lib.a(ping.o)
 .text.unpack   0x0000000000428324      0x658 networking/lib.a(ping.o)
 .text.ping     0x000000000042897c      0x614 networking/lib.a(ping.o)
 .text.ping_main
                0x0000000000428f90      0x238 networking/lib.a(ping.o)
                0x0000000000428f90                ping_main
 .text.ping6_main
                0x00000000004291c8       0x28 networking/lib.a(ping.o)
                0x00000000004291c8                ping6_main
 .text.set_flags
                0x00000000004291f0       0x68 networking/lib.a(route.o)
 .text.kw_lookup
                0x0000000000429258       0xe4 networking/lib.a(route.o)
 .text.bb_displayroutes
                0x000000000042933c      0x394 networking/lib.a(route.o)
                0x000000000042933c                bb_displayroutes
 .text.route_main
                0x00000000004296d0      0xcf0 networking/lib.a(route.o)
                0x00000000004296d0                route_main
 .text.putiac   0x000000000042a3c0       0x30 networking/lib.a(telnet.o)
 .text.fgotsig  0x000000000042a3f0       0x18 networking/lib.a(telnet.o)
 .text.iacflush
                0x000000000042a408       0x4c networking/lib.a(telnet.o)
 .text.putiac2  0x000000000042a454       0xa4 networking/lib.a(telnet.o)
 .text.cookmode
                0x000000000042a4f8       0x3c networking/lib.a(telnet.o)
 .text.rawmode  0x000000000042a534       0x3c networking/lib.a(telnet.o)
 .text.setConMode
                0x000000000042a570       0xc0 networking/lib.a(telnet.o)
 .text.doexit   0x000000000042a630       0x48 networking/lib.a(telnet.o)
 .text.conescape
                0x000000000042a678      0x274 networking/lib.a(telnet.o)
 .text.telnet_main
                0x000000000042a8ec      0xa60 networking/lib.a(telnet.o)
                0x000000000042a8ec                telnet_main
 .text.send_iac
                0x000000000042b34c       0x3c networking/lib.a(telnetd.o)
 .text.make_new_session
                0x000000000042b388      0x44c networking/lib.a(telnetd.o)
 .text.free_session
                0x000000000042b7d4      0x180 networking/lib.a(telnetd.o)
 .text.telnetd_main
                0x000000000042b954      0x884 networking/lib.a(telnetd.o)
                0x000000000042b954                telnetd_main
 .text.base64enc_512
                0x000000000042c1d8       0x7c networking/lib.a(wget.o)
 .text.parse_url
                0x000000000042c254      0x240 networking/lib.a(wget.o)
 .text.gethdr   0x000000000042c494      0x1f0 networking/lib.a(wget.o)
 .text.open_socket
                0x000000000042c684       0x74 networking/lib.a(wget.o)
 .text.safe_fgets
                0x000000000042c6f8       0xc8 networking/lib.a(wget.o)
 .text.alarmtimer
                0x000000000042c7c0       0x50 networking/lib.a(wget.o)
 .text.progressmeter
                0x000000000042c810      0x65c networking/lib.a(wget.o)
 .text.updateprogressmeter
                0x000000000042ce6c       0x5c networking/lib.a(wget.o)
 .text.ftpcmd   0x000000000042cec8      0x13c networking/lib.a(wget.o)
 .text.wget_main
                0x000000000042d004     0x1134 networking/lib.a(wget.o)
                0x000000000042d004                wget_main
 .text.free_main
                0x000000000042e138      0x270 procps/lib.a(free.o)
                0x000000000042e138                free_main
 .text.kill_main
                0x000000000042e3a8      0x49c procps/lib.a(kill.o)
                0x000000000042e3a8                kill_main
 .text.ps_main  0x000000000042e844      0x1c8 procps/lib.a(ps.o)
                0x000000000042e844                ps_main
 .text.dwrite_str
                0x000000000042ea0c       0x5c procps/lib.a(sysctl.o)
 .text.sysctl_write_setting
                0x000000000042ea68      0x2e8 procps/lib.a(sysctl.o)
 .text.sysctl_read_setting
                0x000000000042ed50      0x288 procps/lib.a(sysctl.o)
 .text.sysctl_display_all
                0x000000000042efd8      0x1a8 procps/lib.a(sysctl.o)
 .text.sysctl_main
                0x000000000042f180      0x3c8 procps/lib.a(sysctl.o)
                0x000000000042f180                sysctl_main
 .text.pid_sort
                0x000000000042f548       0x10 procps/lib.a(top.o)
 .text.mem_sort
                0x000000000042f558       0x2c procps/lib.a(top.o)
 .text.pcpu_sort
                0x000000000042f584       0x10 procps/lib.a(top.o)
 .text.time_sort
                0x000000000042f594       0x2c procps/lib.a(top.o)
 .text.mult_lvl_cmp
                0x000000000042f5c0       0x7c procps/lib.a(top.o)
 .text.reset_term
                0x000000000042f63c       0x24 procps/lib.a(top.o)
 .text.fmt_100percent_8
                0x000000000042f660      0x128 procps/lib.a(top.o)
 .text.do_stats
                0x000000000042f788      0x2fc procps/lib.a(top.o)
 .text.display_status
                0x000000000042fa84      0x8c0 procps/lib.a(top.o)
 .text.clearmems
                0x0000000000430344       0x60 procps/lib.a(top.o)
 .text.sig_catcher
                0x00000000004303a4       0x44 procps/lib.a(top.o)
 .text.top_main
                0x00000000004303e8      0x61c procps/lib.a(top.o)
                0x00000000004303e8                top_main
 .text.uptime_main
                0x0000000000430a04      0x23c procps/lib.a(uptime.o)
                0x0000000000430a04                uptime_main
 .text.freecell
                0x0000000000430c40       0x40 shell/lib.a(msh.o)
 .text.freearea
                0x0000000000430c80       0x5c shell/lib.a(msh.o)
 .text.setarea  0x0000000000430cdc       0x14 shell/lib.a(msh.o)
 .text.findeq   0x0000000000430cf0       0x30 shell/lib.a(msh.o)
 .text.export   0x0000000000430d20       0x14 shell/lib.a(msh.o)
 .text.isassign
                0x0000000000430d34       0x6c shell/lib.a(msh.o)
 .text.any      0x0000000000430da0       0x30 shell/lib.a(msh.o)
 .text.anys     0x0000000000430dd0       0x7c shell/lib.a(msh.o)
 .text.gmatch   0x0000000000430e4c      0x1a4 shell/lib.a(msh.o)
 .text.brkset   0x0000000000430ff0       0x24 shell/lib.a(msh.o)
 .text.dolabel  0x0000000000431014        0x8 shell/lib.a(msh.o)
 .text.unquote  0x000000000043101c       0x34 shell/lib.a(msh.o)
 .text.glob3    0x0000000000431050       0x4c shell/lib.a(msh.o)
 .text.glob2    0x000000000043109c       0x40 shell/lib.a(msh.o)
 .text.glob1    0x00000000004310dc      0x248 shell/lib.a(msh.o)
 .text.unget    0x0000000000431324       0x3c shell/lib.a(msh.o)
 .text.nlchar   0x0000000000431360       0x38 shell/lib.a(msh.o)
 .text.wdchar   0x0000000000431398       0x58 shell/lib.a(msh.o)
 .text.xxchar   0x00000000004313f0       0x38 shell/lib.a(msh.o)
 .text.strchar  0x0000000000431428       0x24 shell/lib.a(msh.o)
 .text.qstrchar
                0x000000000043144c       0x2c shell/lib.a(msh.o)
 .text.setsig   0x0000000000431478       0xc4 shell/lib.a(msh.o)
 .text.sig      0x000000000043153c       0x24 shell/lib.a(msh.o)
 .text.closepipe
                0x0000000000431560       0x70 shell/lib.a(msh.o)
 .text.quitenv  0x00000000004315d0       0xc0 shell/lib.a(msh.o)
 .text.closeall
                0x0000000000431690       0x50 shell/lib.a(msh.o)
 .text.closef   0x00000000004316e0       0x30 shell/lib.a(msh.o)
 .text.ioecho   0x0000000000431710       0x54 shell/lib.a(msh.o)
 .text.prs      0x0000000000431764       0x70 shell/lib.a(msh.o)
 .text.fail     0x00000000004317d4       0x2c shell/lib.a(msh.o)
 .text.freehere
                0x0000000000431800       0xcc shell/lib.a(msh.o)
 .text.scraphere
                0x00000000004318cc       0x8c shell/lib.a(msh.o)
 .text.dohelp   0x0000000000431958       0xec shell/lib.a(msh.o)
 .text.getcell  0x0000000000431a44      0x1bc shell/lib.a(msh.o)
 .text.tree     0x0000000000431c00       0x7c shell/lib.a(msh.o)
 .text.newtp    0x0000000000431c7c       0x54 shell/lib.a(msh.o)
 .text.block    0x0000000000431cd0       0x74 shell/lib.a(msh.o)
 .text.list     0x0000000000431d44       0x44 shell/lib.a(msh.o)
 .text.xstrcmp  0x0000000000431d88       0x24 shell/lib.a(msh.o)
 .text.rlookup  0x0000000000431dac       0x80 shell/lib.a(msh.o)
 .text.ronly    0x0000000000431e2c       0x70 shell/lib.a(msh.o)
 .text.rexecve  0x0000000000431e9c      0x20c shell/lib.a(msh.o)
 .text.doumask  0x00000000004320a8      0x1b0 shell/lib.a(msh.o)
 .text.putn     0x0000000000432258       0x1c shell/lib.a(msh.o)
 .text.prn      0x0000000000432274       0x44 shell/lib.a(msh.o)
 .text.dotimes  0x00000000004322b8      0x1d0 shell/lib.a(msh.o)
 .text.herechar
                0x0000000000432488       0x70 shell/lib.a(msh.o)
 .text.remap    0x00000000004324f8      0x120 shell/lib.a(msh.o)
 .text.newfile  0x0000000000432618       0xe0 shell/lib.a(msh.o)
 .text.execute  0x00000000004326f8      0x9cc shell/lib.a(msh.o)
 .text.doexec   0x00000000004330c4       0xe0 shell/lib.a(msh.o)
 .text.run      0x00000000004331a4      0x1e8 shell/lib.a(msh.o)
 .text.doeval   0x000000000043338c       0x38 shell/lib.a(msh.o)
 .text.runtrap  0x00000000004333c4       0x64 shell/lib.a(msh.o)
 .text.leave    0x0000000000433428       0xac shell/lib.a(msh.o)
 .text.readc    0x00000000004334d4      0x23c shell/lib.a(msh.o)
 .text.onintr   0x0000000000433710       0xd0 shell/lib.a(msh.o)
 .text.waitfor  0x00000000004337e0      0x2b0 shell/lib.a(msh.o)
 .text.warn     0x0000000000433a90       0xac shell/lib.a(msh.o)
 .text.err      0x0000000000433b3c       0xe8 shell/lib.a(msh.o)
 .text.openpipe
                0x0000000000433c24       0x68 shell/lib.a(msh.o)
 .text.pushio   0x0000000000433c8c      0x250 shell/lib.a(msh.o)
 .text.dolchar  0x0000000000433edc       0x9c shell/lib.a(msh.o)
 .text.next     0x0000000000433f78       0x30 shell/lib.a(msh.o)
 .text.my_getc  0x0000000000433fa8      0x164 shell/lib.a(msh.o)
 .text.getn     0x000000000043410c       0xd0 shell/lib.a(msh.o)
 .text.brkcontin
                0x00000000004341dc       0xe4 shell/lib.a(msh.o)
 .text.docontinue
                0x00000000004342c0       0x24 shell/lib.a(msh.o)
 .text.dobreak  0x00000000004342e4       0x24 shell/lib.a(msh.o)
 .text.dodot    0x0000000000434308      0x1a0 shell/lib.a(msh.o)
 .text.dochdir  0x00000000004344a8       0xf8 shell/lib.a(msh.o)
 .text.space    0x00000000004345a0       0x6c shell/lib.a(msh.o)
 .text.getwords
                0x000000000043460c       0xbc shell/lib.a(msh.o)
 .text.copyw    0x00000000004346c8       0x4c shell/lib.a(msh.o)
 .text.newword  0x0000000000434714       0x50 shell/lib.a(msh.o)
 .text.addword  0x0000000000434764       0xf4 shell/lib.a(msh.o)
 .text.makenv   0x0000000000434858       0xbc shell/lib.a(msh.o)
 .text.dologin  0x0000000000434914      0x124 shell/lib.a(msh.o)
 .text.word     0x0000000000434a38       0x4c shell/lib.a(msh.o)
 .text.newenv   0x0000000000434a84      0x120 shell/lib.a(msh.o)
 .text.nameval  0x0000000000434ba4      0x214 shell/lib.a(msh.o)
 .text.setval   0x0000000000434db8       0x20 shell/lib.a(msh.o)
 .text.lookup   0x0000000000434dd8      0x280 shell/lib.a(msh.o)
 .text.grave    0x0000000000435058      0x70c shell/lib.a(msh.o)
 .text.doread   0x0000000000435764      0x1c8 shell/lib.a(msh.o)
 .text.doshift  0x000000000043592c      0x120 shell/lib.a(msh.o)
 .text.setstatus
                0x0000000000435a4c       0x94 shell/lib.a(msh.o)
 .text.doexit   0x0000000000435ae0       0x7c shell/lib.a(msh.o)
 .text.dowait   0x0000000000435b5c       0x94 shell/lib.a(msh.o)
 .text.setdash  0x0000000000435bf0       0x9c shell/lib.a(msh.o)
 .text.doset    0x0000000000435c8c      0x2c4 shell/lib.a(msh.o)
 .text.assign   0x0000000000435f50      0x138 shell/lib.a(msh.o)
 .text.rdexp    0x0000000000436088      0x2c0 shell/lib.a(msh.o)
 .text.doreadonly
                0x0000000000436348       0x4c shell/lib.a(msh.o)
 .text.doexport
                0x0000000000436394       0x4c shell/lib.a(msh.o)
 .text.strsave  0x00000000004363e0       0xb4 shell/lib.a(msh.o)
 .text.readhere
                0x0000000000436494      0x30c shell/lib.a(msh.o)
 .text.subgetc  0x00000000004367a0      0x5ec shell/lib.a(msh.o)
 .text.herein   0x0000000000436d8c      0x218 shell/lib.a(msh.o)
 .text.expand   0x0000000000436fa4      0xd9c shell/lib.a(msh.o)
 .text.evalstr  0x0000000000437d40       0xa8 shell/lib.a(msh.o)
 .text.find1case
                0x0000000000437de8       0xe8 shell/lib.a(msh.o)
 .text.eval     0x0000000000437ed0      0x2cc shell/lib.a(msh.o)
 .text.dotrap   0x000000000043819c      0x270 shell/lib.a(msh.o)
 .text.yylex    0x000000000043840c      0x688 shell/lib.a(msh.o)
 .text.yyerror  0x0000000000438a94      0x108 shell/lib.a(msh.o)
 .text.collect  0x0000000000438b9c      0x184 shell/lib.a(msh.o)
 .text.zzerr    0x0000000000438d20       0x30 shell/lib.a(msh.o)
 .text.musthave
                0x0000000000438d50       0x6c shell/lib.a(msh.o)
 .text.synio    0x0000000000438dbc      0x210 shell/lib.a(msh.o)
 .text.pipeline
                0x0000000000438fcc      0x138 shell/lib.a(msh.o)
 .text.andor    0x0000000000439104      0x11c shell/lib.a(msh.o)
 .text.c_list   0x0000000000439220      0x1c0 shell/lib.a(msh.o)
 .text.thenpart
                0x00000000004393e0      0x178 shell/lib.a(msh.o)
 .text.dogroup  0x0000000000439558       0xb8 shell/lib.a(msh.o)
 .text.nested   0x0000000000439610       0xac shell/lib.a(msh.o)
 .text.command  0x00000000004396bc      0x884 shell/lib.a(msh.o)
 .text.yyparse  0x0000000000439f40       0x80 shell/lib.a(msh.o)
 .text.forkexec
                0x0000000000439fc0      0xacc shell/lib.a(msh.o)
 .text.onecommand
                0x000000000043aa8c      0x370 shell/lib.a(msh.o)
 .text.msh_main
                0x000000000043adfc      0xb50 shell/lib.a(msh.o)
                0x000000000043adfc                msh_main
 .text.filechar
                0x000000000043b94c      0x224 shell/lib.a(msh.o)
 .text.linechar
                0x000000000043bb70       0x98 shell/lib.a(msh.o)
 .text.qgravechar
                0x000000000043bc08      0x110 shell/lib.a(msh.o)
 .text.gravechar
                0x000000000043bd18       0x58 shell/lib.a(msh.o)
 .text.klogd_main
                0x000000000043bd70      0x2d8 sysklogd/lib.a(klogd.o)
                0x000000000043bd70                klogd_main
 .text.klogd_signal
                0x000000000043c048       0x84 sysklogd/lib.a(klogd.o)
 .text.decode   0x000000000043c0cc       0xa8 sysklogd/lib.a(logger.o)
 .text.logger_main
                0x000000000043c174      0x2ec sysklogd/lib.a(logger.o)
                0x000000000043c174                logger_main
 .text.error_exit
                0x000000000043c460       0x4c sysklogd/lib.a(logread.o)
 .text.sem_up   0x000000000043c4ac       0x64 sysklogd/lib.a(logread.o)
 .text.logread_main
                0x000000000043c510      0x350 sysklogd/lib.a(logread.o)
                0x000000000043c510                logread_main
 .text.interrupted
                0x000000000043c860       0x5c sysklogd/lib.a(logread.o)
 .text.log_locally
                0x000000000043c8bc      0x4a4 sysklogd/lib.a(syslogd.o)
 .text.timestamp_and_log
                0x000000000043cd60      0x248 sysklogd/lib.a(syslogd.o)
 .text.quit_signal
                0x000000000043cfa8       0xec sysklogd/lib.a(syslogd.o)
 .text.syslogd_main
                0x000000000043d094      0x8d4 sysklogd/lib.a(syslogd.o)
                0x000000000043d094                syslogd_main
 .text.dmesg_main
                0x000000000043d968      0x260 util-linux/lib.a(dmesg.o)
                0x000000000043d968                dmesg_main
 .text.str_units
                0x000000000043dbc8       0x6c util-linux/lib.a(fdisk.o)
 .text.valid_part_table_flag
                0x000000000043dc34       0x2c util-linux/lib.a(fdisk.o)
 .text.store4_little_endian
                0x000000000043dc60       0x20 util-linux/lib.a(fdisk.o)
 .text.read4_little_endian
                0x000000000043dc80       0x2c util-linux/lib.a(fdisk.o)
 .text.set_start_sect
                0x000000000043dcac       0x20 util-linux/lib.a(fdisk.o)
 .text.get_start_sect
                0x000000000043dccc       0x20 util-linux/lib.a(fdisk.o)
 .text.set_nr_sects
                0x000000000043dcec       0x20 util-linux/lib.a(fdisk.o)
 .text.get_nr_sects
                0x000000000043dd0c       0x20 util-linux/lib.a(fdisk.o)
 .text.get_partition_start
                0x000000000043dd2c       0x50 util-linux/lib.a(fdisk.o)
 .text.is_dos_partition
                0x000000000043dd7c       0xd4 util-linux/lib.a(fdisk.o)
 .text.get_sys_types
                0x000000000043de50       0x18 util-linux/lib.a(fdisk.o)
 .text.partition_type
                0x000000000043de68       0x80 util-linux/lib.a(fdisk.o)
 .text.is_cleared_partition
                0x000000000043dee8       0xf8 util-linux/lib.a(fdisk.o)
 .text.set_partition
                0x000000000043dfe0      0x36c util-linux/lib.a(fdisk.o)
 .text.update_units
                0x000000000043e34c       0x54 util-linux/lib.a(fdisk.o)
 .text.linear2chs
                0x000000000043e3a0       0x7c util-linux/lib.a(fdisk.o)
 .text.wrong_p_order
                0x000000000043e41c      0x12c util-linux/lib.a(fdisk.o)
 .text.fill_bounds
                0x000000000043e548      0x164 util-linux/lib.a(fdisk.o)
 .text.menu     0x000000000043e6ac      0x1dc util-linux/lib.a(fdisk.o)
 .text.unknown_command
                0x000000000043e888       0x24 util-linux/lib.a(fdisk.o)
 .text.list_disk_geometry
                0x000000000043e8ac      0x21c util-linux/lib.a(fdisk.o)
 .text.check_consistency
                0x000000000043eac8      0x318 util-linux/lib.a(fdisk.o)
 .text.x_list_table
                0x000000000043ede0      0x200 util-linux/lib.a(fdisk.o)
 .text.warn_cylinders
                0x000000000043efe0       0x74 util-linux/lib.a(fdisk.o)
 .text.warn_geometry
                0x000000000043f054      0x148 util-linux/lib.a(fdisk.o)
 .text.list_types
                0x000000000043f19c      0x1cc util-linux/lib.a(fdisk.o)
 .text.clear_partition
                0x000000000043f368       0x2c util-linux/lib.a(fdisk.o)
 .text.delete_partition
                0x000000000043f394      0x3a8 util-linux/lib.a(fdisk.o)
 .text.fdisk_fatal
                0x000000000043f73c       0x74 util-linux/lib.a(fdisk.o)
 .text.seek_sector
                0x000000000043f7b0       0x98 util-linux/lib.a(fdisk.o)
 .text.get_boot
                0x000000000043f848      0xad8 util-linux/lib.a(fdisk.o)
 .text.create_doslabel
                0x0000000000440320       0xe4 util-linux/lib.a(fdisk.o)
 .text.read_line
                0x0000000000440404       0xd8 util-linux/lib.a(fdisk.o)
 .text.read_nonempty
                0x00000000004404dc       0x68 util-linux/lib.a(fdisk.o)
 .text.read_int
                0x0000000000440544      0x3d8 util-linux/lib.a(fdisk.o)
 .text.get_partition
                0x000000000044091c       0xc0 util-linux/lib.a(fdisk.o)
 .text.get_nonexisting_partition
                0x00000000004409dc      0x138 util-linux/lib.a(fdisk.o)
 .text.get_existing_partition
                0x0000000000440b14      0x138 util-linux/lib.a(fdisk.o)
 .text.add_partition
                0x0000000000440c4c      0xc50 util-linux/lib.a(fdisk.o)
 .text.add_logical
                0x000000000044189c      0x104 util-linux/lib.a(fdisk.o)
 .text.verify   0x00000000004419a0      0x81c util-linux/lib.a(fdisk.o)
 .text.list_table
                0x00000000004421bc      0x5a4 util-linux/lib.a(fdisk.o)
 .text.trydev   0x0000000000442760      0x2fc util-linux/lib.a(fdisk.o)
 .text.write_table
                0x0000000000442a5c      0x1e8 util-linux/lib.a(fdisk.o)
 .text.fdisk_main
                0x0000000000442c44     0x167c util-linux/lib.a(fdisk.o)
                0x0000000000442c44                fdisk_main
 .text.minix_bit
                0x00000000004442c0       0x20 util-linux/lib.a(fsck_minix.o)
 .text.minix_setbit
                0x00000000004442e0       0x3c util-linux/lib.a(fsck_minix.o)
 .text.minix_clrbit
                0x000000000044431c       0x40 util-linux/lib.a(fsck_minix.o)
 .text.pop_filename
                0x000000000044435c       0x68 util-linux/lib.a(fsck_minix.o)
 .text.ask      0x00000000004443c4      0x228 util-linux/lib.a(fsck_minix.o)
 .text.check_zone_nr2
                0x00000000004445ec      0x110 util-linux/lib.a(fsck_minix.o)
 .text.add_zone2
                0x00000000004446fc      0x1c8 util-linux/lib.a(fsck_minix.o)
 .text.check_zone_nr
                0x00000000004448c4       0x54 util-linux/lib.a(fsck_minix.o)
 .text.add_zone
                0x0000000000444918      0x1c8 util-linux/lib.a(fsck_minix.o)
 .text.die      0x0000000000444ae0       0x6c util-linux/lib.a(fsck_minix.o)
 .text.bad_zone
                0x0000000000444b4c       0xb4 util-linux/lib.a(fsck_minix.o)
 .text.read_block
                0x0000000000444c00      0x120 util-linux/lib.a(fsck_minix.o)
 .text.write_super_block
                0x0000000000444d20       0xec util-linux/lib.a(fsck_minix.o)
 .text.write_block
                0x0000000000444e0c      0x170 util-linux/lib.a(fsck_minix.o)
 .text.add_zone_ind2
                0x0000000000444f7c       0xf4 util-linux/lib.a(fsck_minix.o)
 .text.add_zone_dind2
                0x0000000000445070       0xf8 util-linux/lib.a(fsck_minix.o)
 .text.check_zones2
                0x0000000000445168      0x1dc util-linux/lib.a(fsck_minix.o)
 .text.add_zone_ind
                0x0000000000445344       0xf4 util-linux/lib.a(fsck_minix.o)
 .text.check_zones
                0x0000000000445438      0x1c0 util-linux/lib.a(fsck_minix.o)
 .text.push_filename
                0x00000000004455f8       0xb0 util-linux/lib.a(fsck_minix.o)
 .text.recursive_check2
                0x00000000004456a8      0x864 util-linux/lib.a(fsck_minix.o)
 .text.recursive_check
                0x0000000000445f0c      0x714 util-linux/lib.a(fsck_minix.o)
 .text.fsck_minix_main
                0x0000000000446620     0x15f4 util-linux/lib.a(fsck_minix.o)
                0x0000000000446620                fsck_minix_main
 .text.minix_bit
                0x0000000000447c14       0x20 util-linux/lib.a(mkfs_minix.o)
 .text.minix_setbit
                0x0000000000447c34       0x24 util-linux/lib.a(mkfs_minix.o)
 .text.minix_clrbit
                0x0000000000447c58       0x28 util-linux/lib.a(mkfs_minix.o)
 .text.next     0x0000000000447c80       0xe8 util-linux/lib.a(mkfs_minix.o)
 .text.get_free_block
                0x0000000000447d68      0x160 util-linux/lib.a(mkfs_minix.o)
 .text.valid_offset
                0x0000000000447ec8       0x6c util-linux/lib.a(mkfs_minix.o)
 .text.alarm_intr
                0x0000000000447f34       0xec util-linux/lib.a(mkfs_minix.o)
 .text.write_block
                0x0000000000448020       0x6c util-linux/lib.a(mkfs_minix.o)
 .text.mkfs_minix_main
                0x000000000044808c     0x125c util-linux/lib.a(mkfs_minix.o)
                0x000000000044808c                mkfs_minix_main
 .text.more_main
                0x00000000004492e8      0x644 util-linux/lib.a(more.o)
                0x00000000004492e8                more_main
 .text.gotsig   0x000000000044992c       0xb4 util-linux/lib.a(more.o)
 .text.append_mount_options
                0x00000000004499e0      0x1a4 util-linux/lib.a(mount.o)
 .text.parse_mount_options
                0x0000000000449b84      0x19c util-linux/lib.a(mount.o)
 .text.error_msg_rpc
                0x0000000000449d20       0x9c util-linux/lib.a(mount.o)
 .text.mount_it_now
                0x0000000000449dbc      0x108 util-linux/lib.a(mount.o)
 .text.nfs_strerror
                0x0000000000449ec4       0xa0 util-linux/lib.a(mount.o)
 .text.daemonize
                0x0000000000449f64      0x14c util-linux/lib.a(mount.o)
 .text.xdr_fhstatus
                0x000000000044a0b0       0x7c util-linux/lib.a(mount.o)
 .text.xdr_mountres3
                0x000000000044a12c       0xcc util-linux/lib.a(mount.o)
 .text.xdr_dirpath
                0x000000000044a1f8       0x3c util-linux/lib.a(mount.o)
 .text.singlemount
                0x000000000044a234     0x19f0 util-linux/lib.a(mount.o)
 .text.mount_main
                0x000000000044bc24      0x644 util-linux/lib.a(mount.o)
                0x000000000044bc24                mount_main
 .text.pivot_root_main
                0x000000000044c268       0x70 util-linux/lib.a(pivot_root.o)
                0x000000000044c268                pivot_root_main
 .text.socket_timeout
                0x000000000044c2d8       0x2c util-linux/lib.a(rdate.o)
 .text.rdate_main
                0x000000000044c304      0x22c util-linux/lib.a(rdate.o)
                0x000000000044c304                rdate_main
 .text.swap_enable_disable
                0x000000000044c530       0xb4 util-linux/lib.a(swaponoff.o)
 .text.swap_on_off_main
                0x000000000044c5e4      0x16c util-linux/lib.a(swaponoff.o)
                0x000000000044c5e4                swap_on_off_main
 .text.umount_main
                0x000000000044c750      0x468 util-linux/lib.a(umount.o)
                0x000000000044c750                umount_main
 .text.askpass_timeout
                0x000000000044cbb8        0x8 libbb/lib.a(bb_askpass.o)
 .text.bb_askpass
                0x000000000044cbc0      0x2ac libbb/lib.a(bb_askpass.o)
                0x000000000044cbc0                bb_askpass
 .text.bb_do_delay
                0x000000000044ce6c       0xc4 libbb/lib.a(bb_do_delay.o)
                0x000000000044ce6c                bb_do_delay
 .text.change_identity_e2str
                0x000000000044cf30       0xa8 libbb/lib.a(change_identity.o)
                0x000000000044cf30                change_identity_e2str
 .text.change_identity
                0x000000000044cfd8       0x58 libbb/lib.a(change_identity.o)
                0x000000000044cfd8                change_identity
 .text.correct_password
                0x000000000044d030       0xf0 libbb/lib.a(correct_password.o)
                0x000000000044d030                correct_password
 .text.create_icmp_socket
                0x000000000044d120       0xe0 libbb/lib.a(create_icmp_socket.o)
                0x000000000044d120                create_icmp_socket
 .text.i64c     0x000000000044d200       0x48 libbb/lib.a(crypt_make_salt.o)
 .text.crypt_make_salt
                0x000000000044d248      0x108 libbb/lib.a(crypt_make_salt.o)
                0x000000000044d248                crypt_make_salt
 .text.device_open
                0x000000000044d350       0xbc libbb/lib.a(device_open.o)
                0x000000000044d350                device_open
 .text.find_pid_by_name
                0x000000000044d40c      0x134 libbb/lib.a(find_pid_by_name.o)
                0x000000000044d40c                find_pid_by_name
 .text.bb_herror_msg
                0x000000000044d540       0x88 libbb/lib.a(herror_msg.o)
                0x000000000044d540                bb_herror_msg
 .text.bb_herror_msg_and_die
                0x000000000044d5c8       0x88 libbb/lib.a(herror_msg_and_die.o)
                0x000000000044d5c8                bb_herror_msg_and_die
 .text.INET6_rresolve
                0x000000000044d650      0x158 libbb/lib.a(inet_common.o)
                0x000000000044d650                INET6_rresolve
 .text.INET6_resolve
                0x000000000044d7a8      0x11c libbb/lib.a(inet_common.o)
                0x000000000044d7a8                INET6_resolve
 .text.INET_rresolve
                0x000000000044d8c4      0x24c libbb/lib.a(inet_common.o)
                0x000000000044d8c4                INET_rresolve
 .text.INET_resolve
                0x000000000044db10       0xd4 libbb/lib.a(inet_common.o)
                0x000000000044db10                INET_resolve
 .text.bb_info_msg
                0x000000000044dbe4       0xc4 libbb/lib.a(info_msg.o)
                0x000000000044dbe4                bb_info_msg
 .text.get_linux_version_code
                0x000000000044dca8       0xd0 libbb/lib.a(kernel_version.o)
                0x000000000044dca8                get_linux_version_code
 .text.new_line_input_t
                0x000000000044dd78       0x44 libbb/lib.a(lineedit.o)
                0x000000000044dd78                new_line_input_t
 .text.put_prompt
                0x000000000044ddbc       0x7c libbb/lib.a(lineedit.o)
 .text.beep     0x000000000044de38       0x70 libbb/lib.a(lineedit.o)
 .text.cmdedit_set_out_char
                0x000000000044dea8      0x1ec libbb/lib.a(lineedit.o)
 .text.input_end
                0x000000000044e094       0x74 libbb/lib.a(lineedit.o)
 .text.goto_new_line
                0x000000000044e108       0xc4 libbb/lib.a(lineedit.o)
 .text.match_compare
                0x000000000044e1cc       0x24 libbb/lib.a(lineedit.o)
 .text.get_previous_history
                0x000000000044e1f0       0xf4 libbb/lib.a(lineedit.o)
 .text.get_next_history
                0x000000000044e2e4       0xb8 libbb/lib.a(lineedit.o)
 .text.add_quote_for_spec_chars
                0x000000000044e39c       0xd0 libbb/lib.a(lineedit.o)
 .text.input_backward
                0x000000000044e46c       0xe4 libbb/lib.a(lineedit.o)
 .text.input_delete
                0x000000000044e550       0xd8 libbb/lib.a(lineedit.o)
 .text.input_backspace
                0x000000000044e628       0x70 libbb/lib.a(lineedit.o)
 .text.redraw   0x000000000044e698      0x11c libbb/lib.a(lineedit.o)
 .text.input_tab
                0x000000000044e7b4     0x1334 libbb/lib.a(lineedit.o)
 .text.win_changed
                0x000000000044fae8      0x10c libbb/lib.a(lineedit.o)
 .text.read_line_input
                0x000000000044fbf4      0x8e8 libbb/lib.a(lineedit.o)
                0x000000000044fbf4                read_line_input
 .text.print_login_prompt
                0x00000000004504dc       0x9c libbb/lib.a(login.o)
                0x00000000004504dc                print_login_prompt
 .text.print_login_issue
                0x0000000000450578      0x3bc libbb/lib.a(login.o)
                0x0000000000450578                print_login_issue
 .text.del_loop
                0x0000000000450934       0x8c libbb/lib.a(loop.o)
                0x0000000000450934                del_loop
 .text.set_loop
                0x00000000004509c0      0x3a4 libbb/lib.a(loop.o)
                0x00000000004509c0                set_loop
 .text.match_fstype
                0x0000000000450d64      0x104 libbb/lib.a(match_fstype.o)
                0x0000000000450d64                match_fstype
 .text.string_checker_helper
                0x0000000000450e68       0x94 libbb/lib.a(obscure.o)
 .text.string_checker
                0x0000000000450efc      0x138 libbb/lib.a(obscure.o)
 .text.obscure  0x0000000000451034      0x2c8 libbb/lib.a(obscure.o)
                0x0000000000451034                obscure
 .text.write_pidfile
                0x00000000004512fc      0x104 libbb/lib.a(pidfile.o)
                0x00000000004512fc                write_pidfile
 .text.pw_encrypt
                0x0000000000451400       0x8c libbb/lib.a(pw_encrypt.o)
                0x0000000000451400                pw_encrypt
 .text.run_shell
                0x000000000045148c      0x14c libbb/lib.a(run_shell.o)
                0x000000000045148c                run_shell
 .text.setup_environment
                0x00000000004515d8      0x22c libbb/lib.a(setup_environment.o)
                0x00000000004515d8                setup_environment
 .text.bb_simplify_path
                0x0000000000451804      0x178 libbb/lib.a(simplify_path.o)
                0x0000000000451804                bb_simplify_path
 .text.tty_baud_to_value
                0x000000000045197c       0x7c libbb/lib.a(speed_table.o)
                0x000000000045197c                tty_baud_to_value
 .text.tty_value_to_baud
                0x00000000004519f8       0x80 libbb/lib.a(speed_table.o)
                0x00000000004519f8                tty_value_to_baud
 .text.str_tolower
                0x0000000000451a78       0x4c libbb/lib.a(str_tolower.o)
                0x0000000000451a78                str_tolower
 .text.monotonic_sec
                0x0000000000451ac4       0x1c libbb/lib.a(time.o)
                0x0000000000451ac4                monotonic_sec
 .text.trim     0x0000000000451ae0       0xc4 libbb/lib.a(trim.o)
                0x0000000000451ae0                trim
 .text.get_signame
                0x0000000000451ba4       0x54 libbb/lib.a(u_signal_names.o)
                0x0000000000451ba4                get_signame
 .text.get_signum
                0x0000000000451bf8       0xe0 libbb/lib.a(u_signal_names.o)
                0x0000000000451bf8                get_signum
 .text.update_passwd
                0x0000000000451cd8      0x4f0 libbb/lib.a(update_passwd.o)
                0x0000000000451cd8                update_passwd
 .text.bb_uuencode
                0x00000000004521c8       0xc8 libbb/lib.a(uuencode.o)
                0x00000000004521c8                bb_uuencode
 .text.set_nport
                0x0000000000452290       0x2c libbb/lib.a(xconnect.o)
                0x0000000000452290                set_nport
 .text.sockaddr2str
                0x00000000004522bc      0x124 libbb/lib.a(xconnect.o)
 .text.xmalloc_sockaddr2dotted_noport
                0x00000000004523e0       0x20 libbb/lib.a(xconnect.o)
                0x00000000004523e0                xmalloc_sockaddr2dotted_noport
 .text.xmalloc_sockaddr2dotted
                0x0000000000452400       0x20 libbb/lib.a(xconnect.o)
                0x0000000000452400                xmalloc_sockaddr2dotted
 .text.xmalloc_sockaddr2host_noport
                0x0000000000452420       0x20 libbb/lib.a(xconnect.o)
                0x0000000000452420                xmalloc_sockaddr2host_noport
 .text.xsocket_type
                0x0000000000452440       0xd4 libbb/lib.a(xconnect.o)
                0x0000000000452440                xsocket_type
 .text.str2sockaddr
                0x0000000000452514      0x280 libbb/lib.a(xconnect.o)
 .text.xdotted2sockaddr
                0x0000000000452794       0x20 libbb/lib.a(xconnect.o)
                0x0000000000452794                xdotted2sockaddr
 .text.xhost2sockaddr
                0x00000000004527b4       0x20 libbb/lib.a(xconnect.o)
                0x00000000004527b4                xhost2sockaddr
 .text.host2sockaddr
                0x00000000004527d4       0x20 libbb/lib.a(xconnect.o)
                0x00000000004527d4                host2sockaddr
 .text.bb_lookup_port
                0x00000000004527f4       0xe4 libbb/lib.a(xconnect.o)
                0x00000000004527f4                bb_lookup_port
 .text.xconnect
                0x00000000004528d8       0x9c libbb/lib.a(xconnect.o)
                0x00000000004528d8                xconnect
 .text.xconnect_stream
                0x0000000000452974       0x70 libbb/lib.a(xconnect.o)
                0x0000000000452974                xconnect_stream
 .text.setsockopt_reuseaddr
                0x00000000004529e4       0x48 libbb/lib.a(xconnect.o)
                0x00000000004529e4                setsockopt_reuseaddr
 .text.create_and_connect_stream_or_die
                0x0000000000452a2c       0xb0 libbb/lib.a(xconnect.o)
                0x0000000000452a2c                create_and_connect_stream_or_die
 .text.create_and_bind_or_die
                0x0000000000452adc      0x118 libbb/lib.a(xconnect.o)
 .text.create_and_bind_stream_or_die
                0x0000000000452bf4       0x20 libbb/lib.a(xconnect.o)
                0x0000000000452bf4                create_and_bind_stream_or_die
 .text.xgethostbyname
                0x0000000000452c14       0x5c libbb/lib.a(xgethostbyname.o)
                0x0000000000452c14                xgethostbyname
 .text          0x0000000000452c70      0x660 /projects/hnd/tools/linux/hndtools-mipsel-linux-uclibc-4.2.3/lib/gcc/mipsel-linux-uclibc/4.2.3/libgcc.a(_divdi3.o)
                0x0000000000452c70                __divdi3
 .text          0x00000000004532d0      0x5e0 /projects/hnd/tools/linux/hndtools-mipsel-linux-uclibc-4.2.3/lib/gcc/mipsel-linux-uclibc/4.2.3/libgcc.a(_udivdi3.o)
                0x00000000004532d0                __udivdi3
 .text          0x00000000004538b0      0x5a0 /projects/hnd/tools/linux/hndtools-mipsel-linux-uclibc-4.2.3/lib/gcc/mipsel-linux-uclibc/4.2.3/libgcc.a(_umoddi3.o)
                0x00000000004538b0                __umoddi3
 .text          0x0000000000453e50       0x30 /projects/hnd/tools/linux/hndtools-mipsel-linux-uclibc-4.2.3/lib/uclibc_nonshared.a(atexit.os)
                0x0000000000453e50                atexit
 .text          0x0000000000453e80       0x60 /projects/hnd/tools/linux/hndtools-mipsel-linux-uclibc-4.2.3/lib/gcc/mipsel-linux-uclibc/4.2.3/crtend.o
 *(.text.*personality*)
 *(.gnu.warning)
 *(.mips16.fn.*)
 *(.mips16.call.*)

.MIPS.stubs     0x0000000000453ee0     0x1090
 .MIPS.stubs    0x0000000000453ee0     0x1090 /projects/hnd/tools/linux/hndtools-mipsel-linux-uclibc-4.2.3/lib/gcc/mipsel-linux-uclibc/4.2.3/../../../../mipsel-linux-uclibc/lib/crt1.o
                0x0000000000453ee0                longjmp
                0x0000000000453ef0                strcpy
                0x0000000000453f00                setrlimit64
                0x0000000000453f10                unsetenv
                0x0000000000453f20                mkstemp64
                0x0000000000453f30                waitpid
                0x0000000000453f40                ioctl
                0x0000000000453f50                getgid
                0x0000000000453f60                sysconf
                0x0000000000453f70                printf
                0x0000000000453f80                utime
                0x0000000000453f90                recv
                0x0000000000453fa0                connect
                0x0000000000453fb0                sigemptyset
                0x0000000000453fc0                shmctl
                0x0000000000453fd0                strerror
                0x0000000000453fe0                geteuid
                0x0000000000453ff0                inet_pton
                0x0000000000454000                __xpg_basename
                0x0000000000454010                memmove
                0x0000000000454020                getopt_long
                0x0000000000454030                snprintf
                0x0000000000454040                syscall
                0x0000000000454050                mknod
                0x0000000000454060                ftello64
                0x0000000000454070                getgrgid
                0x0000000000454080                clnt_spcreateerror
                0x0000000000454090                times
                0x00000000004540a0                statfs64
                0x00000000004540b0                authunix_create_default
                0x00000000004540c0                getenv
                0x00000000004540d0                fchmod
                0x00000000004540e0                getegid
                0x00000000004540f0                bsearch
                0x0000000000454100                usleep
                0x0000000000454110                execve
                0x0000000000454120                getprotobyname
                0x0000000000454130                semget
                0x0000000000454140                getpid
                0x0000000000454150                qsort
                0x0000000000454160                fchown
                0x0000000000454170                fscanf
                0x0000000000454180                fgets
                0x0000000000454190                dirname
                0x00000000004541a0                fcntl64
                0x00000000004541b0                fchdir
                0x00000000004541c0                shmat
                0x00000000004541d0                memcpy
                0x00000000004541e0                setitimer
                0x00000000004541f0                pmap_getport
                0x0000000000454200                execl
                0x0000000000454210                perror
                0x0000000000454220                readlink
                0x0000000000454230                puts
                0x0000000000454240                dup2
                0x0000000000454250                islower
                0x0000000000454260                tcflush
                0x0000000000454270                tolower
                0x0000000000454280                getuid
                0x0000000000454290                semctl
                0x00000000004542a0                system
                0x00000000004542b0                feof
                0x00000000004542c0                malloc
                0x00000000004542d0                isatty
                0x00000000004542e0                sleep
                0x00000000004542f0                sysinfo
                0x0000000000454300                strtoll
                0x0000000000454310                recvfrom
                0x0000000000454320                xdr_bytes
                0x0000000000454330                pivot_root
                0x0000000000454340                strtoul
                0x0000000000454350                gethostbyaddr
                0x0000000000454360                rmdir
                0x0000000000454370                socket
                0x0000000000454380                select
                0x0000000000454390                init_module
                0x00000000004543a0                delete_module
                0x00000000004543b0                isspace
                0x00000000004543c0                fflush
                0x00000000004543d0                creat64
                0x00000000004543e0                realpath
                0x00000000004543f0                putenv
                0x0000000000454400                sigaddset
                0x0000000000454410                clearenv
                0x0000000000454420                strncasecmp
                0x0000000000454430                getdomainname
                0x0000000000454440                freeaddrinfo
                0x0000000000454450                __fgetc_unlocked
                0x0000000000454460                abort
                0x0000000000454470                chmod
                0x0000000000454480                getnameinfo
                0x0000000000454490                fstat64
                0x00000000004544a0                alarm
                0x00000000004544b0                strtol
                0x00000000004544c0                pipe
                0x00000000004544d0                strnlen
                0x00000000004544e0                uname
                0x00000000004544f0                accept
                0x0000000000454500                rename
                0x0000000000454510                strrchr
                0x0000000000454520                xdr_enum
                0x0000000000454530                wait4
                0x0000000000454540                strtod
                0x0000000000454550                write
                0x0000000000454560                fprintf
                0x0000000000454570                kill
                0x0000000000454580                ctime
                0x0000000000454590                strcat
                0x00000000004545a0                bind
                0x00000000004545b0                getmntent_r
                0x00000000004545c0                inet_addr
                0x00000000004545d0                vprintf
                0x00000000004545e0                umount2
                0x00000000004545f0                mkfifo
                0x0000000000454600                reboot
                0x0000000000454610                chdir
                0x0000000000454620                initgroups
                0x0000000000454630                shmdt
                0x0000000000454640                endgrent
                0x0000000000454650                setsockopt
                0x0000000000454660                fseek
                0x0000000000454670                shmget
                0x0000000000454680                swapoff
                0x0000000000454690                wait
                0x00000000004546a0                umask
                0x00000000004546b0                dprintf
                0x00000000004546c0                fgetpwent_r
                0x00000000004546d0                strcasestr
                0x00000000004546e0                ferror
                0x00000000004546f0                strstr
                0x0000000000454700                unlockpt
                0x0000000000454710                setgid
                0x0000000000454720                signal
                0x0000000000454730                read
                0x0000000000454740                openlog
                0x0000000000454750                clntudp_create
                0x0000000000454760                closelog
                0x0000000000454770                isupper
                0x0000000000454780                strncmp
                0x0000000000454790                query_module
                0x00000000004547a0                strncpy
                0x00000000004547b0                unlink
                0x00000000004547c0                setenv
                0x00000000004547d0                sync
                0x00000000004547e0                strcasecmp
                0x00000000004547f0                sendto
                0x0000000000454800                realloc
                0x0000000000454810                __cxa_atexit
                0x0000000000454820                readdir64
                0x0000000000454830                strtok
                0x0000000000454840                listen
                0x0000000000454850                crypt
                0x0000000000454860                xdr_opaque
                0x0000000000454870                fdopen
                0x0000000000454880                fork
                0x0000000000454890                sscanf
                0x00000000004548a0                execv
                0x00000000004548b0                setmntent
                0x00000000004548c0                isalpha
                0x00000000004548d0                setresuid
                0x00000000004548e0                execlp
                0x00000000004548f0                sigaction
                0x0000000000454900                endmntent
                0x0000000000454910                fread
                0x0000000000454920                __uClibc_main
                0x0000000000454930                strdup
                0x0000000000454940                inet_aton
                0x0000000000454950                strtoull
                0x0000000000454960                regcomp
                0x0000000000454970                gettimeofday
                0x0000000000454980                getopt
                0x0000000000454990                localtime
                0x00000000004549a0                memset
                0x00000000004549b0                fnmatch
                0x00000000004549c0                cfmakeraw
                0x00000000004549d0                clearerr
                0x00000000004549e0                fclose
                0x00000000004549f0                grantpt
                0x0000000000454a00                open64
                0x0000000000454a10                xdr_string
                0x0000000000454a20                inet_ntoa
                0x0000000000454a30                tcgetattr
                0x0000000000454a40                getservbyport
                0x0000000000454a50                regexec
                0x0000000000454a60                time
                0x0000000000454a70                opendir
                0x0000000000454a80                getgroups
                0x0000000000454a90                isgraph
                0x0000000000454aa0                syslog
                0x0000000000454ab0                isalnum
                0x0000000000454ac0                ptsname
                0x0000000000454ad0                isprint
                0x0000000000454ae0                xdr_u_int
                0x0000000000454af0                mount
                0x0000000000454b00                pmap_getmaps
                0x0000000000454b10                ttyname
                0x0000000000454b20                getpwuid
                0x0000000000454b30                __h_errno_location
                0x0000000000454b40                dup
                0x0000000000454b50                swapon
                0x0000000000454b60                getcwd
                0x0000000000454b70                gethostbyname
                0x0000000000454b80                getpwnam
                0x0000000000454b90                getservbyname
                0x0000000000454ba0                fgetc
                0x0000000000454bb0                gethostname
                0x0000000000454bc0                sprintf
                0x0000000000454bd0                clnttcp_create
                0x0000000000454be0                difftime
                0x0000000000454bf0                strcspn
                0x0000000000454c00                regerror
                0x0000000000454c10                umount
                0x0000000000454c20                vfork
                0x0000000000454c30                strsep
                0x0000000000454c40                fsync
                0x0000000000454c50                fputc
                0x0000000000454c60                clnt_sperror
                0x0000000000454c70                hstrerror
                0x0000000000454c80                getaddrinfo
                0x0000000000454c90                setresgid
                0x0000000000454ca0                strftime
                0x0000000000454cb0                getmntent
                0x0000000000454cc0                access
                0x0000000000454cd0                bindresvport
                0x0000000000454ce0                __errno_location
                0x0000000000454cf0                semop
                0x0000000000454d00                exit
                0x0000000000454d10                stime
                0x0000000000454d20                klogctl
                0x0000000000454d30                inet_ntop
                0x0000000000454d40                getgrnam
                0x0000000000454d50                atoi
                0x0000000000454d60                fileno
                0x0000000000454d70                vsyslog
                0x0000000000454d80                _setjmp
                0x0000000000454d90                _exit
                0x0000000000454da0                strspn
                0x0000000000454db0                strlen
                0x0000000000454dc0                lseek64
                0x0000000000454dd0                xdr_array
                0x0000000000454de0                toupper
                0x0000000000454df0                div
                0x0000000000454e00                strchr
                0x0000000000454e10                fputs
                0x0000000000454e20                execvp
                0x0000000000454e30                setsid
                0x0000000000454e40                putpwent
                0x0000000000454e50                closedir
                0x0000000000454e60                create_module
                0x0000000000454e70                vasprintf
                0x0000000000454e80                strchrnul
                0x0000000000454e90                sched_yield
                0x0000000000454ea0                setuid
                0x0000000000454eb0                gethostid
                0x0000000000454ec0                tcsetattr
                0x0000000000454ed0                mkdir
                0x0000000000454ee0                close
                0x0000000000454ef0                tcsetpgrp
                0x0000000000454f00                sigsuspend
                0x0000000000454f10                free
                0x0000000000454f20                sigprocmask
                0x0000000000454f30                __fputc_unlocked
                0x0000000000454f40                fopen64
                0x0000000000454f50                ftruncate64

.fini           0x0000000000454f70       0x58
 *(.fini)
 .fini          0x0000000000454f70       0x1c /projects/hnd/tools/linux/hndtools-mipsel-linux-uclibc-4.2.3/lib/gcc/mipsel-linux-uclibc/4.2.3/../../../../mipsel-linux-uclibc/lib/crti.o
                0x0000000000454f70                _fini
 .fini          0x0000000000454f8c       0x30 /projects/hnd/tools/linux/hndtools-mipsel-linux-uclibc-4.2.3/lib/gcc/mipsel-linux-uclibc/4.2.3/crtbegin.o
 .fini          0x0000000000454fbc        0xc /projects/hnd/tools/linux/hndtools-mipsel-linux-uclibc-4.2.3/lib/gcc/mipsel-linux-uclibc/4.2.3/../../../../mipsel-linux-uclibc/lib/crtn.o
                0x0000000000454fc8                PROVIDE (__etext, .)
                0x0000000000454fc8                PROVIDE (_etext, .)
                0x0000000000454fc8                PROVIDE (etext, .)

.rodata         0x0000000000454fd0     0xa0e0
 *(.rodata .rodata.* .gnu.linkonce.r.*)
 .rodata.str1.4
                0x0000000000454fd0      0x5ec applets/built-in.o
                                        0x608 (size before relaxing)
 .rodata.config_file
                0x00000000004555bc       0x12 applets/built-in.o
 .rodata.mode_mask
                0x00000000004555ce       0x18 applets/built-in.o
 .rodata.mode_chars.6807
                0x00000000004555e6        0xf applets/built-in.o
 .rodata.packed_usage
                0x00000000004555f5     0x2175 applets/built-in.o
 *fill*         0x000000000045776a        0x2 00
 .rodata.str1.4
                0x000000000045776c        0x7 console-tools/lib.a(clear.o)
                                          0x8 (size before relaxing)
 *fill*         0x0000000000457773        0x1 00
 .rodata.str1.4
                0x0000000000457774       0x13 console-tools/lib.a(reset.o)
                                         0x14 (size before relaxing)
 .rodata.str1.4
                0x0000000000000000       0x13 coreutils/lib.a(cat.o)
                                          0x8 (size before relaxing)
 .rodata.str1.4
                0x0000000000000000       0x13 coreutils/lib.a(chgrp.o)
                                          0x4 (size before relaxing)
 *fill*         0x0000000000457787        0x1 00
 .rodata.str1.4
                0x0000000000457788       0x19 coreutils/lib.a(chmod.o)
                                         0x20 (size before relaxing)
 *fill*         0x00000000004577a1        0x3 00
 .rodata.str1.4
                0x00000000004577a4        0x3 coreutils/lib.a(chown.o)
                                          0xc (size before relaxing)
 *fill*         0x00000000004577a7        0x1 00
 .rodata.str1.4
                0x00000000004577a8       0x25 coreutils/lib.a(cp.o)
                                         0x28 (size before relaxing)
 *fill*         0x00000000004577cd        0x3 00
 .rodata.str1.4
                0x00000000004577d0      0x12a coreutils/lib.a(cut.o)
                                        0x138 (size before relaxing)
 .rodata.optstring
                0x00000000004578fa        0xb coreutils/lib.a(cut.o)
 .rodata._op_on_field
                0x0000000000457905       0x1f coreutils/lib.a(cut.o)
 .rodata.str1.4
                0x0000000000457924       0xba coreutils/lib.a(df.o)
                                         0xcc (size before relaxing)
 *fill*         0x00000000004579de        0x2 00
 .rodata.str1.4
                0x00000000004579e0       0x4e coreutils/lib.a(du.o)
                                         0x58 (size before relaxing)
 *fill*         0x0000000000457a2e        0x2 00
 .rodata.str1.4
                0x0000000000457a30        0x4 coreutils/lib.a(echo.o)
 .rodata.str1.4
                0x0000000000457a34       0x13 coreutils/lib.a(env.o)
                                         0x18 (size before relaxing)
 *fill*         0x0000000000457a47        0x1 00
 .rodata.str1.4
                0x0000000000457a48      0x10a coreutils/lib.a(expr.o)
                                        0x128 (size before relaxing)
 .rodata.keywords.6741
                0x0000000000457b52       0x21 coreutils/lib.a(expr.o)
 .rodata.str1.4
                0x0000000000000000        0x8 coreutils/lib.a(head.o)
 *fill*         0x0000000000457b73        0x1 00
 .rodata.head_suffixes
                0x0000000000457b74       0x20 coreutils/lib.a(head.o)
 .rodata.head_opts
                0x0000000000457b94        0x7 coreutils/lib.a(head.o)
 .rodata.header_fmt_str
                0x0000000000457b9b        0xd coreutils/lib.a(head.o)
 .rodata.str1.4
                0x0000000000457ba8        0x5 coreutils/lib.a(hostid.o)
                                          0x8 (size before relaxing)
 *fill*         0x0000000000457bad        0x3 00
 .rodata.str1.4
                0x0000000000457bb0       0x31 coreutils/lib.a(id.o)
                                         0x38 (size before relaxing)
 *fill*         0x0000000000457be1        0x3 00
 .rodata.str1.4
                0x0000000000457be4        0x7 coreutils/lib.a(ln.o)
                                         0x18 (size before relaxing)
 *fill*         0x0000000000457beb        0x5 00
 .rodata        0x0000000000457bf0       0x20 coreutils/lib.a(ls.o)
 .rodata.str1.4
                0x0000000000457c10       0x8d coreutils/lib.a(ls.o)
                                         0x9c (size before relaxing)
 .rodata.ls_options
                0x0000000000457c9d       0x1e coreutils/lib.a(ls.o)
 *fill*         0x0000000000457cbb        0x1 00
 .rodata.opt_flags
                0x0000000000457cbc       0x70 coreutils/lib.a(ls.o)
 .rodata.str1.4
                0x0000000000457d2c       0x16 coreutils/lib.a(mkdir.o)
                                         0x18 (size before relaxing)
 .rodata.str1.4
                0x0000000000000000        0x4 coreutils/lib.a(mkfifo.o)
 .rodata.str1.4
                0x0000000000000000        0x4 coreutils/lib.a(mknod.o)
 .rodata.modes_chars
                0x0000000000457d42        0x8 coreutils/lib.a(mknod.o)
 *fill*         0x0000000000457d4a        0x2 00
 .rodata.modes_cubp
                0x0000000000457d4c        0xc coreutils/lib.a(mknod.o)
 .rodata.str1.4
                0x0000000000457d58       0x53 coreutils/lib.a(mv.o)
                                         0x58 (size before relaxing)
 .rodata.fmt    0x0000000000457dab       0x2e coreutils/lib.a(mv.o)
 *fill*         0x0000000000457dd9        0x3 00
 .rodata.str1.4
                0x0000000000457ddc        0x5 coreutils/lib.a(printf.o)
                                         0x10 (size before relaxing)
 *fill*         0x0000000000457de1        0x3 00
 .rodata.str1.4
                0x0000000000457de4       0x22 coreutils/lib.a(rm.o)
                                         0x2c (size before relaxing)
 .rodata.str1.4
                0x0000000000000000       0x22 coreutils/lib.a(rmdir.o)
                                          0xc (size before relaxing)
 *fill*         0x0000000000457e06        0x2 00
 .rodata.sfx    0x0000000000457e08       0x28 coreutils/lib.a(sleep.o)
 .rodata.str1.4
                0x0000000000457e30       0x1d coreutils/lib.a(tail.o)
                                         0x20 (size before relaxing)
 .rodata.header_fmt
                0x0000000000457e4d        0xd coreutils/lib.a(tail.o)
 *fill*         0x0000000000457e5a        0x2 00
 .rodata.tail_suffixes
                0x0000000000457e5c       0x20 coreutils/lib.a(tail.o)
 .rodata.str1.4
                0x0000000000457e7c       0x74 coreutils/lib.a(test.o)
                                         0x80 (size before relaxing)
 .rodata.ops    0x0000000000457ef0       0xf0 coreutils/lib.a(test.o)
 .rodata.str1.4
                0x0000000000000000       0x74 coreutils/lib.a(touch.o)
                                          0x8 (size before relaxing)
 .rodata.str1.4
                0x0000000000457fe0       0x20 coreutils/lib.a(uname.o)
 .rodata.options
                0x0000000000458000        0x8 coreutils/lib.a(uname.o)
 .rodata.utsname_offset
                0x0000000000458008        0xc coreutils/lib.a(uname.o)
 .rodata.str1.4
                0x0000000000000000       0x20 coreutils/lib.a(yes.o)
                                          0x4 (size before relaxing)
 .rodata.str1.4
                0x0000000000458014       0x11 coreutils/libcoreutils/lib.a(cp_mv_stat.o)
                                         0x14 (size before relaxing)
 *fill*         0x0000000000458025        0x3 00
 .rodata.str1.4
                0x0000000000458028        0x3 coreutils/libcoreutils/lib.a(getopt_mk_fifo_nod.o)
                                          0x4 (size before relaxing)
 *fill*         0x000000000045802b        0x1 00
 .rodata.str1.4
                0x000000000045802c       0x3f findutils/lib.a(find.o)
                                         0x48 (size before relaxing)
 .rodata.options.6955
                0x000000000045806b        0x9 findutils/lib.a(find.o)
 .rodata.params.6824
                0x0000000000458074       0x36 findutils/lib.a(find.o)
 *fill*         0x00000000004580aa        0x2 00
 .rodata.str1.4
                0x00000000004580ac       0x59 findutils/lib.a(grep.o)
                                         0x68 (size before relaxing)
 *fill*         0x0000000000458105        0x3 00
 .rodata.str1.4
                0x0000000000458108       0xf7 findutils/lib.a(xargs.o)
                                        0x10c (size before relaxing)
 *fill*         0x00000000004581ff        0x1 00
 .rodata.str1.4
                0x0000000000458200        0xf init/lib.a(halt.o)
                                         0x10 (size before relaxing)
 *fill*         0x000000000045820f        0x1 00
 .rodata.magic.6465
                0x0000000000458210        0xc init/lib.a(halt.o)
 .rodata.str1.4
                0x000000000045821c       0x41 libbb/lib.a(bb_pwd.o)
                                         0x48 (size before relaxing)
 *fill*         0x000000000045825d        0x3 00
 .rodata.str1.4
                0x0000000000458260        0x7 libbb/lib.a(concat_path_file.o)
                                         0x10 (size before relaxing)
 *fill*         0x0000000000458267        0x1 00
 .rodata.str1.4
                0x0000000000458268      0x15e libbb/lib.a(copy_file.o)
                                        0x1a0 (size before relaxing)
 .rodata.str1.4
                0x0000000000000000        0x4 libbb/lib.a(find_mount_point.o)
 *fill*         0x00000000004583c6        0x2 00
 .rodata.str1.4
                0x00000000004583c8        0x5 libbb/lib.a(find_root_device.o)
                                          0x8 (size before relaxing)
 *fill*         0x00000000004583cd        0x3 00
 .rodata.str1.4
                0x00000000004583d0        0x4 libbb/lib.a(getopt32.o)
 .rodata.bb_null_long_options
                0x00000000004583d4       0x10 libbb/lib.a(getopt32.o)
 .rodata.fmt_tenths.6463
                0x00000000004583e4        0xa libbb/lib.a(human_readable.o)
 .rodata.fmt.6462
                0x00000000004583ee        0x5 libbb/lib.a(human_readable.o)
 .rodata.zero_and_units.6461
                0x00000000004583f3        0x6 libbb/lib.a(human_readable.o)
 .rodata.str1.4
                0x0000000000000000        0x4 libbb/lib.a(inode_hash.o)
 *fill*         0x00000000004583f9        0x3 00
 .rodata.str1.4
                0x00000000004583fc       0x35 libbb/lib.a(make_directory.o)
                                         0x38 (size before relaxing)
 .rodata.bb_banner
                0x0000000000458431       0x29 libbb/lib.a(messages.o)
                0x0000000000458431                bb_banner
 .rodata.bb_msg_memory_exhausted
                0x000000000045845a       0x11 libbb/lib.a(messages.o)
                0x000000000045845a                bb_msg_memory_exhausted
 .rodata.bb_msg_write_error
                0x000000000045846b        0xc libbb/lib.a(messages.o)
                0x000000000045846b                bb_msg_write_error
 .rodata.bb_msg_read_error
                0x0000000000458477        0xb libbb/lib.a(messages.o)
                0x0000000000458477                bb_msg_read_error
 .rodata.bb_msg_can_not_create_raw_socket
                0x0000000000458482       0x18 libbb/lib.a(messages.o)
                0x0000000000458482                bb_msg_can_not_create_raw_socket
 .rodata.bb_msg_perm_denied_are_you_root
                0x000000000045849a       0x23 libbb/lib.a(messages.o)
                0x000000000045849a                bb_msg_perm_denied_are_you_root
 .rodata.bb_msg_requires_arg
                0x00000000004584bd       0x18 libbb/lib.a(messages.o)
                0x00000000004584bd                bb_msg_requires_arg
 .rodata.bb_msg_invalid_arg
                0x00000000004584d5       0x1e libbb/lib.a(messages.o)
                0x00000000004584d5                bb_msg_invalid_arg
 .rodata.bb_msg_standard_input
                0x00000000004584f3        0xf libbb/lib.a(messages.o)
                0x00000000004584f3                bb_msg_standard_input
 .rodata.bb_msg_standard_output
                0x0000000000458502       0x10 libbb/lib.a(messages.o)
                0x0000000000458502                bb_msg_standard_output
 .rodata.bb_str_default
                0x0000000000458512        0x8 libbb/lib.a(messages.o)
                0x0000000000458512                bb_str_default
 .rodata.bb_path_passwd_file
                0x000000000045851a        0xc libbb/lib.a(messages.o)
                0x000000000045851a                bb_path_passwd_file
 .rodata.bb_path_group_file
                0x0000000000458526        0xb libbb/lib.a(messages.o)
                0x0000000000458526                bb_path_group_file
 .rodata.bb_path_motd_file
                0x0000000000458531        0xa libbb/lib.a(messages.o)
                0x0000000000458531                bb_path_motd_file
 .rodata.bb_dev_null
                0x000000000045853b        0xa libbb/lib.a(messages.o)
                0x000000000045853b                bb_dev_null
 .rodata.bb_default_login_shell
                0x0000000000458545        0x9 libbb/lib.a(messages.o)
                0x0000000000458545                bb_default_login_shell
 .rodata.bb_PATH_root_path
                0x000000000045854e       0x23 libbb/lib.a(messages.o)
                0x000000000045854e                bb_PATH_root_path
 *fill*         0x0000000000458571        0x3 00
 .rodata.const_int_1
                0x0000000000458574        0x4 libbb/lib.a(messages.o)
                0x0000000000458574                const_int_1
 .rodata.type_chars
                0x0000000000458578       0x10 libbb/lib.a(mode_string.o)
 .rodata.mode_chars
                0x0000000000458588        0x8 libbb/lib.a(mode_string.o)
 .rodata.bb_path_mtab_file
                0x0000000000458590        0xd libbb/lib.a(mtab_file.o)
                0x0000000000458590                bb_path_mtab_file
 .rodata.perm_chars.6463
                0x000000000045859d        0x7 libbb/lib.a(parse_mode.o)
 .rodata.who_chars.6462
                0x00000000004585a4        0x5 libbb/lib.a(parse_mode.o)
 *fill*         0x00000000004585a9        0x3 00
 .rodata.perm_mask.6461
                0x00000000004585ac       0x18 libbb/lib.a(parse_mode.o)
 .rodata.who_mask.6460
                0x00000000004585c4       0x10 libbb/lib.a(parse_mode.o)
 .rodata.charmap.6459
                0x00000000004585d4       0x12 libbb/lib.a(process_escape_sequence.o)
 *fill*         0x00000000004585e6        0x2 00
 .rodata.str1.4
                0x00000000004585e8       0x2d libbb/lib.a(procps.o)
                                         0x44 (size before relaxing)
 *fill*         0x0000000000458615        0x3 00
 .rodata.str1.4
                0x0000000000458618        0xb libbb/lib.a(read.o)
                                         0x14 (size before relaxing)
 .rodata.str1.4
                0x0000000000000000        0x4 libbb/lib.a(recursive_action.o)
 *fill*         0x0000000000458623        0x1 00
 .rodata.str1.4
                0x0000000000458624       0x66 libbb/lib.a(remove_file.o)
                                         0xa4 (size before relaxing)
 .rodata.str1.4
                0x0000000000000000        0xc libbb/lib.a(verror_msg.o)
 *fill*         0x000000000045868a        0x2 00
 .rodata.str1.4
                0x000000000045868c        0x5 libbb/lib.a(vfork_daemon_rexec.o)
                                         0x10 (size before relaxing)
 .rodata.str1.4
                0x0000000000000000        0x4 libbb/lib.a(wfopen.o)
 .rodata.str1.4
                0x0000000000000000        0x4 libbb/lib.a(wfopen_input.o)
 *fill*         0x0000000000458691        0x3 00
 .rodata.str1.4
                0x0000000000458694       0x61 libbb/lib.a(xatonum.o)
                                         0x64 (size before relaxing)
 *fill*         0x00000000004586f5        0x3 00
 .rodata.str1.4
                0x00000000004586f8      0x132 libbb/lib.a(xfuncs.o)
                                        0x13c (size before relaxing)
 *fill*         0x000000000045882a        0x2 00
 .rodata.str1.4
                0x000000000045882c        0x7 libbb/lib.a(xgetcwd.o)
                                          0x8 (size before relaxing)
 *fill*         0x0000000000458833        0x1 00
 .rodata.str1.4
                0x0000000000458834       0x26 libbb/lib.a(xreadlink.o)
                                         0x28 (size before relaxing)
 *fill*         0x000000000045885a        0x2 00
 .rodata.str1.4
                0x000000000045885c        0xd libbb/lib.a(xregcomp.o)
                                         0x10 (size before relaxing)
 *fill*         0x0000000000458869        0x3 00
 .rodata.str1.4
                0x000000000045886c       0x16 libpwdgrp/lib.a(uidgid_get.o)
                                         0x18 (size before relaxing)
 *fill*         0x0000000000458882        0x2 00
 .rodata.str1.4
                0x0000000000458884       0x3e loginutils/lib.a(addgroup.o)
                                         0x44 (size before relaxing)
 *fill*         0x00000000004588c2        0x2 00
 .rodata.str1.4
                0x00000000004588c4       0xf6 loginutils/lib.a(adduser.o)
                                        0x110 (size before relaxing)
 *fill*         0x00000000004589ba        0x2 00
 .rodata.default_home_prefix
                0x00000000004589bc       0x10 loginutils/lib.a(adduser.o)
 .rodata.prog.6504
                0x00000000004589cc        0x7 loginutils/lib.a(adduser.o)
 *fill*         0x00000000004589d3        0x1 00
 .rodata.str1.4
                0x00000000004589d4       0x1c loginutils/lib.a(deluser.o)
                                         0x3c (size before relaxing)
 .rodata.str1.4
                0x00000000004589f0       0xde loginutils/lib.a(getty.o)
                                        0x100 (size before relaxing)
 .rodata.opt_string
                0x0000000000458ace       0x11 loginutils/lib.a(getty.o)
 *fill*         0x0000000000458adf        0x1 00
 .rodata.erase.6658
                0x0000000000458ae0        0xc loginutils/lib.a(getty.o)
 .rodata.str1.4
                0x0000000000458aec       0xad loginutils/lib.a(login.o)
                                         0xb0 (size before relaxing)
 *fill*         0x0000000000458b99        0x3 00
 .rodata.str1.4
                0x0000000000458b9c      0x188 loginutils/lib.a(passwd.o)
                                        0x1a8 (size before relaxing)
 .rodata.str1.4
                0x0000000000458d24       0x32 loginutils/lib.a(su.o)
                                         0x3c (size before relaxing)
 *fill*         0x0000000000458d56        0x2 00
 .rodata.str1.4
                0x0000000000458d58      0x16b loginutils/lib.a(sulogin.o)
                                        0x180 (size before relaxing)
 *fill*         0x0000000000458ec3        0x1 00
 .rodata.str1.4
                0x0000000000458ec4      0x114 miscutils/lib.a(less.o)
                                        0x130 (size before relaxing)
 .rodata.controls
                0x0000000000458fd8       0x21 miscutils/lib.a(less.o)
 .rodata.ctrlconv
                0x0000000000458ff9       0x21 miscutils/lib.a(less.o)
 *fill*         0x000000000045901a        0x2 00
 .rodata.str1.4
                0x000000000045901c      0x8ca modutils/lib.a(insmod.o)
                                        0x8e4 (size before relaxing)
 *fill*         0x00000000004598e6        0x2 00
 .rodata.obj_load
                0x00000000004598e8       0x28 modutils/lib.a(insmod.o)
 .rodata.insmod_main
                0x0000000000459910       0x1c modutils/lib.a(insmod.o)
 .rodata.tainted_file.8207
                0x000000000045992c       0x19 modutils/lib.a(insmod.o)
 .rodata.symprefix.8233
                0x0000000000459945        0xa modutils/lib.a(insmod.o)
 *fill*         0x000000000045994f        0x1 00
 .rodata.str1.4
                0x0000000000459950       0x9f modutils/lib.a(lsmod.o)
                                         0xb4 (size before relaxing)
 *fill*         0x00000000004599ef        0x1 00
 .rodata.str1.4
                0x00000000004599f0        0x4 modutils/lib.a(rmmod.o)
                                         0x10 (size before relaxing)
 .rodata.str1.4
                0x00000000004599f4      0x256 networking/lib.a(arp.o)
                                        0x268 (size before relaxing)
 *fill*         0x0000000000459c4a        0x2 00
 .rodata.arp_main
                0x0000000000459c4c       0x40 networking/lib.a(arp.o)
 .rodata.options
                0x0000000000459c8c       0x2e networking/lib.a(arp.o)
 *fill*         0x0000000000459cba        0x2 00
 .rodata.str1.4
                0x0000000000459cbc      0x150 networking/lib.a(ifconfig.o)
                                        0x16c (size before relaxing)
 .rodata.str1.4
                0x0000000000459e0c      0x4bd networking/lib.a(interface.o)
                                        0x4f0 (size before relaxing)
 *fill*         0x000000000045a2c9        0x1 00
 .rodata.ife_print_flags_mask.7064
                0x000000000045a2ca       0x1a networking/lib.a(interface.o)
 .rodata.ife_print_flags_strs.7063
                0x000000000045a2e4       0x6a networking/lib.a(interface.o)
 .rodata.TRext  0x000000000045a34e        0xf networking/lib.a(interface.o)
 *fill*         0x000000000045a35d        0x3 00
 .rodata.str1.4
                0x000000000045a360      0x4b4 networking/lib.a(netstat.o)
                                        0x4d4 (size before relaxing)
 .rodata.unix_do_one
                0x000000000045a814       0x28 networking/lib.a(netstat.o)
 .rodata.str1.4
                0x000000000045a83c      0x2cb networking/lib.a(ping.o)
                                        0x2d4 (size before relaxing)
 *fill*         0x000000000045ab07        0x1 00
 .rodata.unpack
                0x000000000045ab08       0x4c networking/lib.a(ping.o)
 .rodata.str1.4
                0x000000000045ab54      0x267 networking/lib.a(route.o)
                                        0x27c (size before relaxing)
 .rodata.tbl_verb
                0x000000000045adbb       0x15 networking/lib.a(route.o)
 .rodata.flagvals
                0x000000000045add0       0x20 networking/lib.a(route.o)
 .rodata.flagchars
                0x000000000045adf0        0x9 networking/lib.a(route.o)
 .rodata.tbl_ipvx
                0x000000000045adf9       0x68 networking/lib.a(route.o)
 *fill*         0x000000000045ae61        0x3 00
 .rodata.flags_ipvx
                0x000000000045ae64       0x10 networking/lib.a(route.o)
 .rodata.tbl_hash_net_host
                0x000000000045ae74        0xf networking/lib.a(route.o)
 *fill*         0x000000000045ae83        0x1 00
 .rodata.str1.4
                0x000000000045ae84       0xf8 networking/lib.a(telnet.o)
                                        0x110 (size before relaxing)
 .rodata.telnet_main
                0x000000000045af7c       0x14 networking/lib.a(telnet.o)
 .rodata.escapecharis
                0x000000000045af90       0x17 networking/lib.a(telnet.o)
 *fill*         0x000000000045afa7        0x1 00
 .rodata.str1.4
                0x000000000045afa8       0x73 networking/lib.a(telnetd.o)
                                         0x88 (size before relaxing)
 *fill*         0x000000000045b01b        0x1 00
 .rodata.str1.4
                0x000000000045b01c      0x329 networking/lib.a(wget.o)
                                        0x350 (size before relaxing)
 .rodata.wget_longopts.6586
                0x000000000045b345       0x6e networking/lib.a(wget.o)
 .rodata.keywords.6570
                0x000000000045b3b3       0x33 networking/lib.a(wget.o)
 *fill*         0x000000000045b3e6        0x2 00
 .rodata.str1.4
                0x000000000045b3e8       0x7f procps/lib.a(free.o)
                                         0x94 (size before relaxing)
 *fill*         0x000000000045b467        0x1 00
 .rodata.str1.4
                0x000000000045b468       0x9f procps/lib.a(kill.o)
                                         0xa4 (size before relaxing)
 *fill*         0x000000000045b507        0x1 00
 .rodata.str1.4
                0x000000000045b508       0x51 procps/lib.a(ps.o)
                                         0x58 (size before relaxing)
 *fill*         0x000000000045b559        0x3 00
 .rodata.str1.4
                0x000000000045b55c       0x16 procps/lib.a(sysctl.o)
                                         0x24 (size before relaxing)
 .rodata.DEFAULT_PRELOAD
                0x000000000045b572       0x11 procps/lib.a(sysctl.o)
 .rodata.PROC_PATH
                0x000000000045b583        0xb procps/lib.a(sysctl.o)
 .rodata.ERR_UNKNOWN_PARAMETER
                0x000000000045b58e       0x1f procps/lib.a(sysctl.o)
 .rodata.ERR_PRELOAD_FILE
                0x000000000045b5ad       0x26 procps/lib.a(sysctl.o)
 .rodata.WARN_BAD_LINE
                0x000000000045b5d3       0x30 procps/lib.a(sysctl.o)
 .rodata.ERR_NO_EQUALS
                0x000000000045b603       0x2c procps/lib.a(sysctl.o)
 .rodata.ERR_MALFORMED_SETTING
                0x000000000045b62f       0x1f procps/lib.a(sysctl.o)
 .rodata.ERR_INVALID_KEY
                0x000000000045b64e       0x1f procps/lib.a(sysctl.o)
 .rodata.ERR_PERMISSION_DENIED
                0x000000000045b66d       0x26 procps/lib.a(sysctl.o)
 .rodata.ERR_UNKNOWN_WRITING
                0x000000000045b693       0x2a procps/lib.a(sysctl.o)
 .rodata.ERR_UNKNOWN_READING
                0x000000000045b6bd       0x2a procps/lib.a(sysctl.o)
 *fill*         0x000000000045b6e7        0x1 00
 .rodata.str1.4
                0x000000000045b6e8      0x205 procps/lib.a(top.o)
                                        0x234 (size before relaxing)
 *fill*         0x000000000045b8ed        0x3 00
 .rodata.str1.4
                0x000000000045b8f0       0x67 procps/lib.a(uptime.o)
                                         0x70 (size before relaxing)
 *fill*         0x000000000045b957        0x1 00
 .rodata.str1.4
                0x000000000045b958      0x587 shell/lib.a(msh.o)
                                        0x63c (size before relaxing)
 *fill*         0x000000000045bedf        0x1 00
 .rodata.execute
                0x000000000045bee0       0x44 shell/lib.a(msh.o)
 *fill*         0x000000000045bf24        0xc 00
 .rodata        0x000000000045bf30       0x20 shell/lib.a(msh.o)
 .rodata.spcl   0x000000000045bf50        0x4 shell/lib.a(msh.o)
 .rodata.str1.4
                0x000000000045bf54       0x62 sysklogd/lib.a(klogd.o)
                                         0x68 (size before relaxing)
 *fill*         0x000000000045bfb6        0x2 00
 .rodata.str1.4
                0x000000000045bfb8       0x31 sysklogd/lib.a(logger.o)
                                         0x3c (size before relaxing)
 *fill*         0x000000000045bfe9        0x3 00
 .rodata.str1.4
                0x000000000045bfec       0x89 sysklogd/lib.a(logread.o)
                                         0x90 (size before relaxing)
 *fill*         0x000000000045c075        0x3 00
 .rodata.str1.4
                0x000000000045c078      0x20e sysklogd/lib.a(syslogd.o)
                                        0x240 (size before relaxing)
 *fill*         0x000000000045c286        0x2 00
 .rodata.str1.4
                0x000000000045c288       0x10 util-linux/lib.a(dmesg.o)
 .rodata.str1.4
                0x000000000045c298     0x15b3 util-linux/lib.a(fdisk.o)
                                       0x15d4 (size before relaxing)
 *fill*         0x000000000045d84b        0x1 00
 .rodata.fdisk_main
                0x000000000045d84c       0xc4 util-linux/lib.a(fdisk.o)
 .rodata.unable_to_open
                0x000000000045d910        0xf util-linux/lib.a(fdisk.o)
 .rodata.unable_to_read
                0x000000000045d91f       0x14 util-linux/lib.a(fdisk.o)
 .rodata.unable_to_seek
                0x000000000045d933       0x12 util-linux/lib.a(fdisk.o)
 *fill*         0x000000000045d945        0xb 00
 .rodata        0x000000000045d950       0x10 util-linux/lib.a(fdisk.o)
 .rodata.msg_part_already_defined
                0x000000000045d960       0x3d util-linux/lib.a(fdisk.o)
 .rodata.msg_building_new_label
                0x000000000045d99d       0x8f util-linux/lib.a(fdisk.o)
 .rodata.unable_to_write
                0x000000000045da2c       0x13 util-linux/lib.a(fdisk.o)
 *fill*         0x000000000045da3f        0x1 00
 .rodata.str1.4
                0x000000000045da40      0x7dd util-linux/lib.a(fsck_minix.o)
                                        0x81c (size before relaxing)
 *fill*         0x000000000045e21d        0x3 00
 .rodata.fsck_minix_main
                0x000000000045e220       0x58 util-linux/lib.a(fsck_minix.o)
 .rodata.str1.4
                0x000000000045e278      0x238 util-linux/lib.a(mkfs_minix.o)
                                        0x294 (size before relaxing)
 .rodata.str1.4
                0x000000000045e4b0       0x65 util-linux/lib.a(more.o)
                                         0x7c (size before relaxing)
 *fill*         0x000000000045e515        0x3 00
 .rodata.str1.4
                0x000000000045e518      0x38c util-linux/lib.a(mount.o)
                                        0x3f0 (size before relaxing)
 .rodata.singlemount
                0x000000000045e8a4       0x80 util-linux/lib.a(mount.o)
 .rodata.options.7723
                0x000000000045e924       0x30 util-linux/lib.a(mount.o)
 .rodata.options.7698
                0x000000000045e954       0xa1 util-linux/lib.a(mount.o)
 *fill*         0x000000000045e9f5        0x3 00
 .rodata.nfs_errtbl
                0x000000000045e9f8       0xa0 util-linux/lib.a(mount.o)
 .rodata.filesystems.7318
                0x000000000045ea98       0x24 util-linux/lib.a(mount.o)
 .rodata.str1.4
                0x000000000045eabc       0x8b util-linux/lib.a(rdate.o)
                                         0x9c (size before relaxing)
 .rodata.str1.4
                0x0000000000000000       0x20 util-linux/lib.a(swaponoff.o)
 *fill*         0x000000000045eb47        0x1 00
 .rodata.str1.4
                0x000000000045eb48       0x85 util-linux/lib.a(umount.o)
                                         0x8c (size before relaxing)
 *fill*         0x000000000045ebcd        0x3 00
 .rodata.str1.4
                0x000000000045ebd0       0x12 libbb/lib.a(change_identity.o)
                                         0x18 (size before relaxing)
 *fill*         0x000000000045ebe2        0x2 00
 .rodata.str1.4
                0x000000000045ebe4        0xf libbb/lib.a(correct_password.o)
                                         0x10 (size before relaxing)
 *fill*         0x000000000045ebf3        0x1 00
 .rodata.str1.4
                0x000000000045ebf4        0x5 libbb/lib.a(create_icmp_socket.o)
                                          0x8 (size before relaxing)
 *fill*         0x000000000045ebf9        0x3 00
 .rodata.str1.4
                0x000000000045ebfc       0x28 libbb/lib.a(inet_common.o)
                                         0x2c (size before relaxing)
 .rodata.str1.4
                0x000000000045ec24       0x1e libbb/lib.a(kernel_version.o)
                                         0x24 (size before relaxing)
 *fill*         0x000000000045ec42        0x2 00
 .rodata.str1.4
                0x000000000045ec44       0x4b libbb/lib.a(lineedit.o)
                                         0x5c (size before relaxing)
 *fill*         0x000000000045ec8f        0x1 00
 .rodata.str1.4
                0x000000000045ec90        0x9 libbb/lib.a(login.o)
                                         0x14 (size before relaxing)
 .rodata.fmtstr_d
                0x000000000045ec99        0xd libbb/lib.a(login.o)
 .rodata.fmtstr_t
                0x000000000045eca6        0x9 libbb/lib.a(login.o)
 *fill*         0x000000000045ecaf        0x1 00
 .rodata.str1.4
                0x000000000045ecb0       0x13 libbb/lib.a(loop.o)
                                         0x14 (size before relaxing)
 *fill*         0x000000000045ecc3        0x1 00
 .rodata.str1.4
                0x000000000045ecc4       0x9a libbb/lib.a(obscure.o)
                                         0x9c (size before relaxing)
 *fill*         0x000000000045ed5e        0x2 00
 .rodata.str1.4
                0x000000000045ed60        0xe libbb/lib.a(run_shell.o)
                                         0x18 (size before relaxing)
 *fill*         0x000000000045ed6e        0x2 00
 .rodata.str1.4
                0x000000000045ed70       0x34 libbb/lib.a(setup_environment.o)
                                         0x60 (size before relaxing)
 .rodata.speeds
                0x000000000045eda4       0x50 libbb/lib.a(speed_table.o)
 .rodata.str1.4
                0x000000000045edf4        0x6 libbb/lib.a(trim.o)
                                          0x8 (size before relaxing)
 *fill*         0x000000000045edfa        0x2 00
 .rodata.str1.4
                0x000000000045edfc        0x4 libbb/lib.a(u_signal_names.o)
 .rodata.signals
                0x000000000045ee00       0xe0 libbb/lib.a(u_signal_names.o)
 .rodata.str1.4
                0x000000000045eee0       0x46 libbb/lib.a(update_passwd.o)
                                         0x70 (size before relaxing)
 .rodata.bb_uuenc_tbl_base64
                0x000000000045ef26       0x43 libbb/lib.a(uuencode.o)
                0x000000000045ef26                bb_uuenc_tbl_base64
 *fill*         0x000000000045ef69        0x3 00
 .rodata.str1.4
                0x000000000045ef6c       0x44 libbb/lib.a(xconnect.o)
                                         0x4c (size before relaxing)
 .rodata.str1.4
                0x0000000000000000        0x4 libbb/lib.a(xgethostbyname.o)
 .rodata        0x000000000045efb0      0x100 /projects/hnd/tools/linux/hndtools-mipsel-linux-uclibc-4.2.3/lib/gcc/mipsel-linux-uclibc/4.2.3/libgcc.a(_clz.o)
                0x000000000045efb0                __clz_tab

.rodata1
 *(.rodata1)

.sdata2
 *(.sdata2 .sdata2.* .gnu.linkonce.s2.*)

.sbss2
 *(.sbss2 .sbss2.* .gnu.linkonce.sb2.*)

.eh_frame_hdr   0x000000000045f0b0       0x24
 *(.eh_frame_hdr)
 .eh_frame_hdr  0x000000000045f0b0       0x24 /projects/hnd/tools/linux/hndtools-mipsel-linux-uclibc-4.2.3/lib/gcc/mipsel-linux-uclibc/4.2.3/../../../../mipsel-linux-uclibc/lib/crt1.o

.eh_frame
 *(.eh_frame)

.gcc_except_table
 *(.gcc_except_table .gcc_except_table.*)
                0x000000000045f0d4                . = (ALIGN (0x40000) - ((0x40000 - .) & 0x3ffff))
                0x000000000049f0d4                . = (0x40000 DATA_SEGMENT_ALIGN 0x1000)

.eh_frame       0x000000000049f0d4       0x44
 *(.eh_frame)
 .eh_frame      0x000000000049f0d4        0x0 /projects/hnd/tools/linux/hndtools-mipsel-linux-uclibc-4.2.3/lib/gcc/mipsel-linux-uclibc/4.2.3/crtbegin.o
 .eh_frame      0x000000000049f0d4       0x20 /projects/hnd/tools/linux/hndtools-mipsel-linux-uclibc-4.2.3/lib/gcc/mipsel-linux-uclibc/4.2.3/libgcc.a(_divdi3.o)
 .eh_frame      0x000000000049f0f4       0x10 /projects/hnd/tools/linux/hndtools-mipsel-linux-uclibc-4.2.3/lib/gcc/mipsel-linux-uclibc/4.2.3/libgcc.a(_udivdi3.o)
                                         0x20 (size before relaxing)
 .eh_frame      0x000000000049f104       0x10 /projects/hnd/tools/linux/hndtools-mipsel-linux-uclibc-4.2.3/lib/gcc/mipsel-linux-uclibc/4.2.3/libgcc.a(_umoddi3.o)
                                         0x20 (size before relaxing)
 .eh_frame      0x000000000049f114        0x4 /projects/hnd/tools/linux/hndtools-mipsel-linux-uclibc-4.2.3/lib/gcc/mipsel-linux-uclibc/4.2.3/crtend.o

.gcc_except_table
 *(.gcc_except_table .gcc_except_table.*)

.tdata
 *(.tdata .tdata.* .gnu.linkonce.td.*)

.tbss
 *(.tbss .tbss.* .gnu.linkonce.tb.*)
 *(.tcommon)

.preinit_array  0x000000000049f118        0x0
                0x000000000049f118                PROVIDE (__preinit_array_start, .)
 *(.preinit_array)
                0x000000000049f118                PROVIDE (__preinit_array_end, .)

.init_array     0x000000000049f118        0x0
                0x000000000049f118                PROVIDE (__init_array_start, .)
 *(SORT(.init_array.*))
 *(.init_array)
                0x000000000049f118                PROVIDE (__init_array_end, .)

.fini_array     0x000000000049f118        0x0
                0x000000000049f118                PROVIDE (__fini_array_start, .)
 *(.fini_array)
 *(SORT(.fini_array.*))
                0x000000000049f118                PROVIDE (__fini_array_end, .)

.ctors          0x000000000049f118        0x8
 *crtbegin*.o(.ctors)
 *(EXCLUDE_FILE(*crtend*.o) .ctors)
 .ctors         0x000000000049f118        0x4 /projects/hnd/tools/linux/hndtools-mipsel-linux-uclibc-4.2.3/lib/gcc/mipsel-linux-uclibc/4.2.3/crtbegin.o
 *(SORT(.ctors.*))
 *(.ctors)
 .ctors         0x000000000049f11c        0x4 /projects/hnd/tools/linux/hndtools-mipsel-linux-uclibc-4.2.3/lib/gcc/mipsel-linux-uclibc/4.2.3/crtend.o

.dtors          0x000000000049f120        0x8
 *crtbegin*.o(.dtors)
 *(EXCLUDE_FILE(*crtend*.o) .dtors)
 .dtors         0x000000000049f120        0x4 /projects/hnd/tools/linux/hndtools-mipsel-linux-uclibc-4.2.3/lib/gcc/mipsel-linux-uclibc/4.2.3/crtbegin.o
 *(SORT(.dtors.*))
 *(.dtors)
 .dtors         0x000000000049f124        0x4 /projects/hnd/tools/linux/hndtools-mipsel-linux-uclibc-4.2.3/lib/gcc/mipsel-linux-uclibc/4.2.3/crtend.o

.jcr            0x000000000049f128        0x4
 *(.jcr)
 .jcr           0x000000000049f128        0x0 /projects/hnd/tools/linux/hndtools-mipsel-linux-uclibc-4.2.3/lib/gcc/mipsel-linux-uclibc/4.2.3/crtbegin.o
 .jcr           0x000000000049f128        0x4 /projects/hnd/tools/linux/hndtools-mipsel-linux-uclibc-4.2.3/lib/gcc/mipsel-linux-uclibc/4.2.3/crtend.o

.data.rel.ro    0x000000000049f12c      0xb78
 *(.data.rel.ro.local* .gnu.linkonce.d.rel.ro.local.*)
 .data.rel.ro.local.argv_dash.6459
                0x000000000049f12c        0x8 coreutils/lib.a(cat.o)
 .data.rel.ro.local.dotdir.6973
                0x000000000049f134        0x4 coreutils/lib.a(ls.o)
 .data.rel.ro.local.forbid
                0x000000000049f138       0x3c loginutils/lib.a(sulogin.o)
 .data.rel.ro.local.gpl_licenses.8160
                0x000000000049f174       0x14 modutils/lib.a(insmod.o)
 .data.rel.ro.local.specials.8145
                0x000000000049f188       0x10 modutils/lib.a(insmod.o)
 .data.rel.ro.local.section_names.8247
                0x000000000049f198       0x14 modutils/lib.a(insmod.o)
 .data.rel.ro.local.OptArray
                0x000000000049f1ac       0xb0 networking/lib.a(ifconfig.o)
 .data.rel.ro.local.Arg1Opt
                0x000000000049f25c       0xa8 networking/lib.a(ifconfig.o)
 .data.rel.ro.local.ss_fmt
                0x000000000049f304        0xc networking/lib.a(interface.o)
 .data.rel.ro.local.if_port_text
                0x000000000049f310       0x20 networking/lib.a(interface.o)
 .data.rel.ro.local.aftypes
                0x000000000049f330       0x10 networking/lib.a(interface.o)
 .data.rel.ro.local.hwtypes
                0x000000000049f340       0x18 networking/lib.a(interface.o)
 .data.rel.ro.local.inet_aftype
                0x000000000049f358       0x2c networking/lib.a(interface.o)
 .data.rel.ro.local.inet6_aftype
                0x000000000049f384       0x2c networking/lib.a(interface.o)
 .data.rel.ro.local.unspec_aftype
                0x000000000049f3b0       0x2c networking/lib.a(interface.o)
 .data.rel.ro.local.loop_hwtype
                0x000000000049f3dc       0x20 networking/lib.a(interface.o)
 .data.rel.ro.local.ether_hwtype
                0x000000000049f3fc       0x20 networking/lib.a(interface.o)
 .data.rel.ro.local.ppp_hwtype
                0x000000000049f41c       0x20 networking/lib.a(interface.o)
 .data.rel.ro.local.unspec_hwtype
                0x000000000049f43c       0x20 networking/lib.a(interface.o)
 .data.rel.ro.local.sit_hwtype
                0x000000000049f45c       0x20 networking/lib.a(interface.o)
 .data.rel.ro.local.tcp_state
                0x000000000049f47c       0x30 networking/lib.a(netstat.o)
 .data.rel.ro.local.null
                0x000000000049f4ac        0x4 shell/lib.a(msh.o)
 .data.rel.ro.local.restab
                0x000000000049f4b0       0xa0 shell/lib.a(msh.o)
 .data.rel.ro.local.builtincmds
                0x000000000049f550       0xa8 shell/lib.a(msh.o)
 .data.rel.ro.local.signame
                0x000000000049f5f8       0x40 shell/lib.a(msh.o)
 .data.rel.ro.local.init_data
                0x000000000049f638       0x48 sysklogd/lib.a(syslogd.o)
 .data.rel.ro.local.i386_sys_types
                0x000000000049f680       0xc4 util-linux/lib.a(fdisk.o)
 .data.rel.ro.local.mount_options
                0x000000000049f744       0xf8 util-linux/lib.a(mount.o)
 *(.data.rel.ro* .gnu.linkonce.d.rel.ro.*)
 .data.rel.ro.applets
                0x000000000049f83c      0x468 applets/built-in.o
                0x000000000049f83c                applets
                0x000000000049fca4                . = (. DATA_SEGMENT_RELRO_END 0x0)

.data           0x000000000049fcb0      0x218
                0x000000000049fcb0                _fdata = .
 *(.data .data.* .gnu.linkonce.d.*)
 .data.rel.local
                0x000000000049fcb0        0x4 /projects/hnd/tools/linux/hndtools-mipsel-linux-uclibc-4.2.3/lib/gcc/mipsel-linux-uclibc/4.2.3/crtbegin.o
 *fill*         0x000000000049fcb4        0xc 00
 .data          0x000000000049fcc0       0x10 applets/built-in.o
                0x000000000049fcc0                bb_errno
 .data.ugid     0x000000000049fcd0        0x8 coreutils/lib.a(chown.o)
 .data.delim    0x000000000049fcd8        0x1 coreutils/lib.a(cut.o)
 *fill*         0x000000000049fcd9        0x3 00
 .data.disp_hr  0x000000000049fcdc        0x4 coreutils/lib.a(du.o)
 .data.max_print_depth
                0x000000000049fce0        0x4 coreutils/lib.a(du.o)
 .data.count_hardlinks
                0x000000000049fce4        0x4 coreutils/lib.a(du.o)
 .data.terminal_width
                0x000000000049fce8        0x4 coreutils/lib.a(ls.o)
 .data.tabstops
                0x000000000049fcec        0x4 coreutils/lib.a(ls.o)
 .data.recurse_flags
                0x000000000049fcf0        0x4 findutils/lib.a(find.o)
 .data.need_print
                0x000000000049fcf4        0x1 findutils/lib.a(find.o)
 *fill*         0x000000000049fcf5        0x3 00
 .data.xfunc_error_retval
                0x000000000049fcf8        0x4 libbb/lib.a(default_error_retval.o)
                0x000000000049fcf8                xfunc_error_retval
 *fill*         0x000000000049fcfc        0x4 00
 .data          0x000000000049fd00       0x10 libbb/lib.a(messages.o)
                0x000000000049fd00                ptr_to_globals
 .data.logmode  0x000000000049fd10        0x1 libbb/lib.a(verror_msg.o)
                0x000000000049fd10                logmode
 *fill*         0x000000000049fd11        0x3 00
 .data.rel.local.msg_eol
                0x000000000049fd14        0x4 libbb/lib.a(verror_msg.o)
                0x000000000049fd14                msg_eol
 .data.rel.local.device
                0x000000000049fd18        0x4 networking/lib.a(arp.o)
 .data.flags    0x000000000049fd1c        0x1 networking/lib.a(netstat.o)
 *fill*         0x000000000049fd1d        0x3 00
 .data.rel.local.net_conn_line
                0x000000000049fd20        0x4 networking/lib.a(netstat.o)
 .data.pingsock
                0x000000000049fd24        0x4 networking/lib.a(ping.o)
 .data.tmin     0x000000000049fd28        0x4 networking/lib.a(ping.o)
 .data.rel.local.issuefile
                0x000000000049fd2c        0x4 networking/lib.a(telnetd.o)
 .data.rel.local.loginpath
                0x000000000049fd30        0x4 networking/lib.a(telnetd.o)
 .data.nullstr.6772
                0x000000000049fd34        0x1 networking/lib.a(wget.o)
 *fill*         0x000000000049fd35        0x3 00
 .data.rel.local.e
                0x000000000049fd38       0x18 shell/lib.a(msh.o)
 .data.temparg  0x000000000049fd50       0x18 shell/lib.a(msh.o)
 .data.qflag    0x000000000049fd68        0x4 shell/lib.a(msh.o)
 .data.iounit   0x000000000049fd6c        0x4 shell/lib.a(msh.o)
 .data.heedint  0x000000000049fd70        0x4 shell/lib.a(msh.o)
 .data.SMrdn    0x000000000049fd74        0xc sysklogd/lib.a(logread.o)
 .data.SMrup    0x000000000049fd80        0x8 sysklogd/lib.a(logread.o)
 .data.rel.local.prioritynames
                0x000000000049fd88       0x68 sysklogd/lib.a(syslogd.o)
                0x000000000049fd88                prioritynames
 .data.rel.local.facilitynames
                0x000000000049fdf0       0xb8 sysklogd/lib.a(syslogd.o)
                0x000000000049fdf0                facilitynames
 .data.sector_size
                0x000000000049fea8        0x4 util-linux/lib.a(fdisk.o)
 .data.sector_offset
                0x000000000049feac        0x4 util-linux/lib.a(fdisk.o)
 .data.display_in_cyl_units
                0x000000000049feb0        0x4 util-linux/lib.a(fdisk.o)
 .data.type_open
                0x000000000049feb4        0x4 util-linux/lib.a(fdisk.o)
 .data.partitions
                0x000000000049feb8        0x4 util-linux/lib.a(fdisk.o)
 .data.units_per_sector
                0x000000000049febc        0x4 util-linux/lib.a(fdisk.o)
 .data.dos_compatible_flag
                0x000000000049fec0        0x4 util-linux/lib.a(fdisk.o)
 .data.cmdedit_termw
                0x000000000049fec4        0x4 libbb/lib.a(lineedit.o)
 *(.gnu.linkonce.d.*personality*)

.rld_map        0x000000000049fec8        0x4
 .rld_map       0x000000000049fec8        0x4 /projects/hnd/tools/linux/hndtools-mipsel-linux-uclibc-4.2.3/lib/gcc/mipsel-linux-uclibc/4.2.3/../../../../mipsel-linux-uclibc/lib/crt1.o
                0x000000000049fec8                __RLD_MAP

.data1
 *(.data1)
                0x000000000049fecc                . = .
                0x00000000004a7ec0                _gp = (ALIGN (0x10) + 0x7ff0)

.got            0x000000000049fed0      0xaf8
 *(.got.plt)
 *(.got)
 .got           0x000000000049fed0      0xaf8 /projects/hnd/tools/linux/hndtools-mipsel-linux-uclibc-4.2.3/lib/gcc/mipsel-linux-uclibc/4.2.3/../../../../mipsel-linux-uclibc/lib/crt1.o
                0x000000000049fed0                _GLOBAL_OFFSET_TABLE_

.sdata          0x00000000004a09c8        0x4
 *(.sdata .sdata.* .gnu.linkonce.s.*)
 .sdata         0x00000000004a09c8        0x4 /projects/hnd/tools/linux/hndtools-mipsel-linux-uclibc-4.2.3/lib/gcc/mipsel-linux-uclibc/4.2.3/crtbegin.o
                0x00000000004a09c8                __dso_handle

.lit8
 *(.lit8)

.lit4
 *(.lit4)
                0x00000000004a09cc                _edata = .
                0x00000000004a09cc                PROVIDE (edata, .)
                0x00000000004a09cc                __bss_start = .
                0x00000000004a09cc                _fbss = .

.sbss           0x00000000004a09cc       0x25
 *(.dynsbss)
 *(.sbss .sbss.* .gnu.linkonce.sb.*)
 *(.scommon)
 .scommon       0x00000000004a09cc        0x8 applets/built-in.o
                0x00000000004a09cc                current_applet
                0x00000000004a09d0                applet_name
 .scommon       0x00000000004a09d4        0x4 libbb/lib.a(error_msg_and_die.o)
                0x00000000004a09d4                die_sleep
 .scommon       0x00000000004a09d8        0xc libbb/lib.a(getopt32.o)
                0x00000000004a09d8                opt_complementary
                0x00000000004a09dc                option_mask32
                0x00000000004a09e0                applet_long_options
 .scommon       0x00000000004a09e4        0x4 libbb/lib.a(messages.o)
                0x00000000004a09e4                const_int_0
 .scommon       0x00000000004a09e8        0x1 networking/lib.a(interface.o)
                0x00000000004a09e8                interface_opt_a
 *fill*         0x00000000004a09e9        0x3 00
 .scommon       0x00000000004a09ec        0x4 networking/lib.a(ping.o)
                0x00000000004a09ec                hostent
 .scommon       0x00000000004a09f0        0x1 libbb/lib.a(pidfile.o)
                0x00000000004a09f0                wrote_pidfile

.bss            0x00000000004a0a00     0x16e0
 *(.dynbss)
 *(.bss .bss.* .gnu.linkonce.b.*)
 .bss           0x00000000004a0a00       0x20 /projects/hnd/tools/linux/hndtools-mipsel-linux-uclibc-4.2.3/lib/gcc/mipsel-linux-uclibc/4.2.3/crtbegin.o
 .bss.ruid      0x00000000004a0a20        0x4 applets/built-in.o
 .bss.suid_config
                0x00000000004a0a24        0x4 applets/built-in.o
 .bss.suid_cfg_readable
                0x00000000004a0a28        0x1 applets/built-in.o
 *fill*         0x00000000004a0a29        0x3 00
 .bss.cut_lists
                0x00000000004a0a2c        0x4 coreutils/lib.a(cut.o)
 .bss.nlists    0x00000000004a0a30        0x4 coreutils/lib.a(cut.o)
 .bss.status    0x00000000004a0a34        0x4 coreutils/lib.a(du.o)
 .bss.print_files
                0x00000000004a0a38        0x4 coreutils/lib.a(du.o)
 .bss.slink_depth
                0x00000000004a0a3c        0x4 coreutils/lib.a(du.o)
 .bss.du_depth  0x00000000004a0a40        0x4 coreutils/lib.a(du.o)
 .bss.one_file_system
                0x00000000004a0a44        0x4 coreutils/lib.a(du.o)
 .bss.dir_dev   0x00000000004a0a48        0x8 coreutils/lib.a(du.o)
 .bss.status    0x00000000004a0a50        0x4 coreutils/lib.a(ls.o)
 .bss.all_fmt   0x00000000004a0a54        0x4 coreutils/lib.a(ls.o)
 .bss.current_time_t
                0x00000000004a0a58        0x4 coreutils/lib.a(ls.o)
 .bss.t_wp      0x00000000004a0a5c        0x4 coreutils/lib.a(test.o)
 .bss.t_wp_op   0x00000000004a0a60        0x4 coreutils/lib.a(test.o)
 .bss.group_array
                0x00000000004a0a64        0x4 coreutils/lib.a(test.o)
 .bss.ngroups   0x00000000004a0a68        0x4 coreutils/lib.a(test.o)
 *fill*         0x00000000004a0a6c        0x4 00
 .bss.leaving   0x00000000004a0a70       0xf0 coreutils/lib.a(test.o)
 .bss.actions   0x00000000004a0b60        0x4 findutils/lib.a(find.o)
 .bss.max_matches
                0x00000000004a0b64        0x4 findutils/lib.a(grep.o)
 .bss.reflags   0x00000000004a0b68        0x4 findutils/lib.a(grep.o)
 .bss.invert_search
                0x00000000004a0b6c        0x1 findutils/lib.a(grep.o)
 .bss.print_filename
                0x00000000004a0b6d        0x1 findutils/lib.a(grep.o)
 .bss.open_errors
                0x00000000004a0b6e        0x1 findutils/lib.a(grep.o)
 .bss.did_print_line
                0x00000000004a0b6f        0x1 findutils/lib.a(grep.o)
 .bss.lines_before
                0x00000000004a0b70        0x4 findutils/lib.a(grep.o)
 .bss.lines_after
                0x00000000004a0b74        0x4 findutils/lib.a(grep.o)
 .bss.before_buf
                0x00000000004a0b78        0x4 findutils/lib.a(grep.o)
 .bss.last_line_printed
                0x00000000004a0b7c        0x4 findutils/lib.a(grep.o)
 .bss.pattern_head
                0x00000000004a0b80        0x4 findutils/lib.a(grep.o)
 .bss.cur_file  0x00000000004a0b84        0x4 findutils/lib.a(grep.o)
 .bss.eof_stdin_detected
                0x00000000004a0b88        0x1 findutils/lib.a(xargs.o)
 .bss.str.6464  0x00000000004a0b89       0x15 libbb/lib.a(human_readable.o)
 *fill*         0x00000000004a0b9e        0x2 00
 .bss.ino_dev_hashtable
                0x00000000004a0ba0        0x4 libbb/lib.a(inode_hash.o)
 .bss.buf.6461  0x00000000004a0ba4        0xc libbb/lib.a(mode_string.o)
 .bss.username  0x00000000004a0bb0        0x8 libbb/lib.a(procps.o)
 .bss.groupname
                0x00000000004a0bb8        0x8 libbb/lib.a(procps.o)
 .bss.local_buf
                0x00000000004a0bc0        0xc libbb/lib.a(xfuncs.o)
 .bss.pf        0x00000000004a0bcc        0x4 loginutils/lib.a(adduser.o)
                0x00000000004a0bcc                pf
 .bss.fakehost  0x00000000004a0bd0        0x4 loginutils/lib.a(getty.o)
 .bss.baud_index.6630
                0x00000000004a0bd4        0x4 loginutils/lib.a(getty.o)
 .bss.short_tty
                0x00000000004a0bd8        0x4 loginutils/lib.a(login.o)
 .bss.enpasswords
                0x00000000004a0bdc       0x80 loginutils/lib.a(passwd.o)
 .bss.printed_info.8196
                0x00000000004a0c5c        0x1 modutils/lib.a(insmod.o)
 *fill*         0x00000000004a0c5d        0x3 00
 .bss.ksyms     0x00000000004a0c60        0x4 modutils/lib.a(insmod.o)
 .bss.nksyms    0x00000000004a0c64        0x4 modutils/lib.a(insmod.o)
 .bss.ext_modules
                0x00000000004a0c68        0x4 modutils/lib.a(insmod.o)
 .bss.n_ext_modules
                0x00000000004a0c6c        0x4 modutils/lib.a(insmod.o)
 .bss.n_ext_modules_used
                0x00000000004a0c70        0x4 modutils/lib.a(insmod.o)
 .bss.m_filename
                0x00000000004a0c74        0x4 modutils/lib.a(insmod.o)
 .bss.m_fullName
                0x00000000004a0c78        0x4 modutils/lib.a(insmod.o)
 .bss.ap        0x00000000004a0c7c        0x4 networking/lib.a(arp.o)
 .bss.hw        0x00000000004a0c80        0x4 networking/lib.a(arp.o)
 .bss.sockfd    0x00000000004a0c84        0x4 networking/lib.a(arp.o)
 .bss.hw_set    0x00000000004a0c88        0x1 networking/lib.a(arp.o)
 .bss.proc_read.6812
                0x00000000004a0c89        0x1 networking/lib.a(interface.o)
 *fill*         0x00000000004a0c8a        0x2 00
 .bss.buff.6608
                0x00000000004a0c8c        0x4 networking/lib.a(interface.o)
 .bss.buff.6571
                0x00000000004a0c90        0x4 networking/lib.a(interface.o)
 .bss.buff.6590
                0x00000000004a0c94        0x4 networking/lib.a(interface.o)
 .bss.buff.6923
                0x00000000004a0c98        0x4 networking/lib.a(interface.o)
 .bss.int_list  0x00000000004a0c9c        0x4 networking/lib.a(interface.o)
 .bss.int_last  0x00000000004a0ca0        0x4 networking/lib.a(interface.o)
 .bss.has_inode.6737
                0x00000000004a0ca4        0x1 networking/lib.a(netstat.o)
 *fill*         0x00000000004a0ca5        0x3 00
 .bss.my_filename
                0x00000000004a0ca8        0x4 networking/lib.a(ping.o)
 .bss.voip_filename
                0x00000000004a0cac        0x4 networking/lib.a(ping.o)
 .bss.fastping  0x00000000004a0cb0        0x4 networking/lib.a(ping.o)
 .bss.pingaddr  0x00000000004a0cb4       0x10 networking/lib.a(ping.o)
 .bss.datalen   0x00000000004a0cc4        0x4 networking/lib.a(ping.o)
 .bss.ntransmitted
                0x00000000004a0cc8        0x4 networking/lib.a(ping.o)
 .bss.nreceived
                0x00000000004a0ccc        0x4 networking/lib.a(ping.o)
 .bss.nrepeats  0x00000000004a0cd0        0x4 networking/lib.a(ping.o)
 .bss.pingcount
                0x00000000004a0cd4        0x4 networking/lib.a(ping.o)
 .bss.myid      0x00000000004a0cd8        0x4 networking/lib.a(ping.o)
 .bss.options   0x00000000004a0cdc        0x4 networking/lib.a(ping.o)
 .bss.tmax      0x00000000004a0ce0        0x4 networking/lib.a(ping.o)
 .bss.tsum      0x00000000004a0ce4        0x4 networking/lib.a(ping.o)
 .bss.rcvd_tbl  0x00000000004a0ce8       0x80 networking/lib.a(ping.o)
 .bss.maxfd     0x00000000004a0d68        0x4 networking/lib.a(telnetd.o)
 .bss.sessions  0x00000000004a0d6c        0x4 networking/lib.a(telnetd.o)
 .bss.totalsize.6904
                0x00000000004a0d70        0x8 networking/lib.a(wget.o)
 .bss.lastsize.6903
                0x00000000004a0d78        0x8 networking/lib.a(wget.o)
 .bss.start_sec.6902
                0x00000000004a0d80        0x4 networking/lib.a(wget.o)
 .bss.lastupdate_sec.6901
                0x00000000004a0d84        0x4 networking/lib.a(wget.o)
 .bss.content_len
                0x00000000004a0d88        0x8 networking/lib.a(wget.o)
 .bss.beg_range
                0x00000000004a0d90        0x8 networking/lib.a(wget.o)
 .bss.transferred
                0x00000000004a0d98        0x8 networking/lib.a(wget.o)
 .bss.chunked   0x00000000004a0da0        0x1 networking/lib.a(wget.o)
 *fill*         0x00000000004a0da1        0x3 00
 .bss.curfile   0x00000000004a0da4        0x4 networking/lib.a(wget.o)
 .bss.bufid     0x00000000004a0da8        0x4 shell/lib.a(msh.o)
 .bss.dummy.7114
                0x00000000004a0dac       0x10 shell/lib.a(msh.o)
 .bss.size.9621
                0x00000000004a0dbc        0x4 shell/lib.a(msh.o)
 .bss.position.9620
                0x00000000004a0dc0        0x4 shell/lib.a(msh.o)
 .bss.flags     0x00000000004a0dc4       0x1a shell/lib.a(msh.o)
 *fill*         0x00000000004a0dde        0x2 00
 .bss.trapset   0x00000000004a0de0        0x4 shell/lib.a(msh.o)
 .bss.yynerrs   0x00000000004a0de4        0x4 shell/lib.a(msh.o)
 .bss.current_prompt
                0x00000000004a0de8        0x4 shell/lib.a(msh.o)
 .bss.line_input_state
                0x00000000004a0dec        0x4 shell/lib.a(msh.o)
 .bss.iostack   0x00000000004a0df0       0x80 shell/lib.a(msh.o)
 .bss.dolv      0x00000000004a0e70        0x4 shell/lib.a(msh.o)
 .bss.dolc      0x00000000004a0e74        0x4 shell/lib.a(msh.o)
 .bss.exstat    0x00000000004a0e78        0x4 shell/lib.a(msh.o)
 .bss.gflg      0x00000000004a0e7c        0x1 shell/lib.a(msh.o)
 *fill*         0x00000000004a0e7d        0x3 00
 .bss.interactive
                0x00000000004a0e80        0x4 shell/lib.a(msh.o)
 .bss.execflg   0x00000000004a0e84        0x4 shell/lib.a(msh.o)
 .bss.multiline
                0x00000000004a0e88        0x4 shell/lib.a(msh.o)
 .bss.outtree   0x00000000004a0e8c        0x4 shell/lib.a(msh.o)
 .bss.failpt    0x00000000004a0e90        0x4 shell/lib.a(msh.o)
 .bss.errpt     0x00000000004a0e94        0x4 shell/lib.a(msh.o)
 .bss.brklist   0x00000000004a0e98        0x4 shell/lib.a(msh.o)
 .bss.isbreak   0x00000000004a0e9c        0x4 shell/lib.a(msh.o)
 .bss.wdlist    0x00000000004a0ea0        0x4 shell/lib.a(msh.o)
 .bss.iolist    0x00000000004a0ea4        0x4 shell/lib.a(msh.o)
 .bss.vlist     0x00000000004a0ea8        0x4 shell/lib.a(msh.o)
 .bss.homedir   0x00000000004a0eac        0x4 shell/lib.a(msh.o)
 .bss.prompt    0x00000000004a0eb0        0x4 shell/lib.a(msh.o)
 .bss.cprompt   0x00000000004a0eb4        0x4 shell/lib.a(msh.o)
 .bss.path      0x00000000004a0eb8        0x4 shell/lib.a(msh.o)
 .bss.shell     0x00000000004a0ebc        0x4 shell/lib.a(msh.o)
 .bss.ifs       0x00000000004a0ec0        0x4 shell/lib.a(msh.o)
 .bss.areanum   0x00000000004a0ec4        0x4 shell/lib.a(msh.o)
 .bss.intr      0x00000000004a0ec8        0x4 shell/lib.a(msh.o)
 .bss.inparse   0x00000000004a0ecc        0x4 shell/lib.a(msh.o)
 .bss.startl    0x00000000004a0ed0        0x4 shell/lib.a(msh.o)
 .bss.peeksym   0x00000000004a0ed4        0x4 shell/lib.a(msh.o)
 .bss.nlseen    0x00000000004a0ed8        0x4 shell/lib.a(msh.o)
 .bss.yylval    0x00000000004a0edc        0x4 shell/lib.a(msh.o)
 .bss.elinep    0x00000000004a0ee0        0x4 shell/lib.a(msh.o)
 .bss.inhere    0x00000000004a0ee4        0x4 shell/lib.a(msh.o)
 .bss.acthere   0x00000000004a0ee8        0x4 shell/lib.a(msh.o)
 .bss.areabot   0x00000000004a0eec        0x4 shell/lib.a(msh.o)
 .bss.areatop   0x00000000004a0ef0        0x4 shell/lib.a(msh.o)
 .bss.areanxt   0x00000000004a0ef4        0x4 shell/lib.a(msh.o)
 .bss.brktop    0x00000000004a0ef8        0x4 shell/lib.a(msh.o)
 .bss.brkaddr   0x00000000004a0efc        0x4 shell/lib.a(msh.o)
 .bss.cl        0x00000000004a0f00        0x4 shell/lib.a(msh.o)
 .bss.nl        0x00000000004a0f04        0x4 shell/lib.a(msh.o)
 .bss.func      0x00000000004a0f08        0x4 shell/lib.a(msh.o)
 .bss.globv     0x00000000004a0f0c        0x4 shell/lib.a(msh.o)
 .bss.shbuf     0x00000000004a0f10        0x4 sysklogd/lib.a(logread.o)
 .bss.user_set_sector_size
                0x00000000004a0f14        0x4 util-linux/lib.a(fdisk.o)
 .bss.heads     0x00000000004a0f18        0x4 util-linux/lib.a(fdisk.o)
 .bss.sectors   0x00000000004a0f1c        0x4 util-linux/lib.a(fdisk.o)
 .bss.cylinders
                0x00000000004a0f20        0x4 util-linux/lib.a(fdisk.o)
 .bss.current_label_type
                0x00000000004a0f24        0x4 util-linux/lib.a(fdisk.o)
 .bss.disk_device
                0x00000000004a0f28        0x4 util-linux/lib.a(fdisk.o)
 .bss.fd        0x00000000004a0f2c        0x4 util-linux/lib.a(fdisk.o)
 .bss.ext_index
                0x00000000004a0f30        0x4 util-linux/lib.a(fdisk.o)
 .bss.listing   0x00000000004a0f34        0x4 util-linux/lib.a(fdisk.o)
 .bss.dos_changed
                0x00000000004a0f38        0x4 util-linux/lib.a(fdisk.o)
 .bss.nowarn    0x00000000004a0f3c        0x4 util-linux/lib.a(fdisk.o)
 .bss.user_cylinders
                0x00000000004a0f40        0x4 util-linux/lib.a(fdisk.o)
 .bss.user_heads
                0x00000000004a0f44        0x4 util-linux/lib.a(fdisk.o)
 .bss.user_sectors
                0x00000000004a0f48        0x4 util-linux/lib.a(fdisk.o)
 .bss.pt_heads  0x00000000004a0f4c        0x4 util-linux/lib.a(fdisk.o)
 .bss.pt_sectors
                0x00000000004a0f50        0x4 util-linux/lib.a(fdisk.o)
 .bss.kern_heads
                0x00000000004a0f54        0x4 util-linux/lib.a(fdisk.o)
 .bss.kern_sectors
                0x00000000004a0f58        0x4 util-linux/lib.a(fdisk.o)
 *fill*         0x00000000004a0f5c        0x4 00
 .bss.extended_offset
                0x00000000004a0f60        0x8 util-linux/lib.a(fdisk.o)
 .bss.total_number_of_sectors
                0x00000000004a0f68        0x8 util-linux/lib.a(fdisk.o)
 .bss.fslist    0x00000000004a0f70        0x4 util-linux/lib.a(mount.o)
                0x00000000004a0f70                fslist
 .bss.p.7598    0x00000000004a0f74       0x10 util-linux/lib.a(mount.o)
 .bss.buf.7506  0x00000000004a0f84       0x30 util-linux/lib.a(mount.o)
 .bss.nfs_mount_version
                0x00000000004a0fb4        0x4 util-linux/lib.a(mount.o)
 .bss.kernel_version
                0x00000000004a0fb8        0x4 util-linux/lib.a(mount.o)
 .bss.passwd.6465
                0x00000000004a0fbc        0x4 libbb/lib.a(bb_askpass.o)
 .bss.cache.6494
                0x00000000004a0fc0        0x4 libbb/lib.a(inet_common.o)
 .bss.state     0x00000000004a0fc4        0x4 libbb/lib.a(lineedit.o)
 .bss.initial_settings
                0x00000000004a0fc8       0x34 libbb/lib.a(lineedit.o)
 .bss.new_settings
                0x00000000004a0ffc       0x34 libbb/lib.a(lineedit.o)
 .bss.cmdedit_x
                0x00000000004a1030        0x4 libbb/lib.a(lineedit.o)
 .bss.cmdedit_y
                0x00000000004a1034        0x4 libbb/lib.a(lineedit.o)
 .bss.cmdedit_prmt_len
                0x00000000004a1038        0x4 libbb/lib.a(lineedit.o)
 .bss.cursor    0x00000000004a103c        0x4 libbb/lib.a(lineedit.o)
 .bss.command_len
                0x00000000004a1040        0x4 libbb/lib.a(lineedit.o)
 .bss.command_ps
                0x00000000004a1044        0x4 libbb/lib.a(lineedit.o)
 .bss.cmdedit_prompt
                0x00000000004a1048        0x4 libbb/lib.a(lineedit.o)
 .bss.matches   0x00000000004a104c        0x4 libbb/lib.a(lineedit.o)
 .bss.num_matches
                0x00000000004a1050        0x4 libbb/lib.a(lineedit.o)
 .bss.previous_SIGWINCH_handler
                0x00000000004a1054        0x4 libbb/lib.a(lineedit.o)
 .bss.cipher.6468
                0x00000000004a1058        0x4 libbb/lib.a(pw_encrypt.o)
 *(COMMON)
 COMMON         0x00000000004a105c     0x1001 libbb/lib.a(messages.o)
                0x00000000004a105c                bb_common_bufsiz1
 *fill*         0x00000000004a205d        0x3 00
 COMMON         0x00000000004a2060       0x80 loginutils/lib.a(adduser.o)
                0x00000000004a2060                passwords
                0x00000000004a20e0                . = ALIGN ((. != 0x0)?0x4:0x1)
                0x00000000004a20e0                . = ALIGN (0x4)
                0x00000000004a20e0                . = ALIGN (0x4)
                0x00000000004a20e0                _end = .
                0x00000000004a20e0                PROVIDE (end, .)
                0x00000000004a20e0                . = DATA_SEGMENT_END (.)

.stab
 *(.stab)

.stabstr
 *(.stabstr)

.stab.excl
 *(.stab.excl)

.stab.exclstr
 *(.stab.exclstr)

.stab.index
 *(.stab.index)

.stab.indexstr
 *(.stab.indexstr)

.comment        0x0000000000000000      0xca8
 *(.comment)
 .comment       0x0000000000000000       0x12 /projects/hnd/tools/linux/hndtools-mipsel-linux-uclibc-4.2.3/lib/gcc/mipsel-linux-uclibc/4.2.3/../../../../mipsel-linux-uclibc/lib/crti.o
 .comment       0x0000000000000012       0x12 /projects/hnd/tools/linux/hndtools-mipsel-linux-uclibc-4.2.3/lib/gcc/mipsel-linux-uclibc/4.2.3/crtbegin.o
 .comment       0x0000000000000024       0x12 applets/built-in.o
 .comment       0x0000000000000036       0x12 archival/libunarchive/lib.a(decompress_bunzip2.o)
 .comment       0x0000000000000048       0x12 console-tools/lib.a(clear.o)
 .comment       0x000000000000005a       0x12 console-tools/lib.a(reset.o)
 .comment       0x000000000000006c       0x12 coreutils/lib.a(basename.o)
 .comment       0x000000000000007e       0x12 coreutils/lib.a(cat.o)
 .comment       0x0000000000000090       0x12 coreutils/lib.a(chgrp.o)
 .comment       0x00000000000000a2       0x12 coreutils/lib.a(chmod.o)
 .comment       0x00000000000000b4       0x12 coreutils/lib.a(chown.o)
 .comment       0x00000000000000c6       0x12 coreutils/lib.a(cp.o)
 .comment       0x00000000000000d8       0x12 coreutils/lib.a(cut.o)
 .comment       0x00000000000000ea       0x12 coreutils/lib.a(df.o)
 .comment       0x00000000000000fc       0x12 coreutils/lib.a(dirname.o)
 .comment       0x000000000000010e       0x12 coreutils/lib.a(du.o)
 .comment       0x0000000000000120       0x12 coreutils/lib.a(echo.o)
 .comment       0x0000000000000132       0x12 coreutils/lib.a(env.o)
 .comment       0x0000000000000144       0x12 coreutils/lib.a(expr.o)
 .comment       0x0000000000000156       0x12 coreutils/lib.a(false.o)
 .comment       0x0000000000000168       0x12 coreutils/lib.a(head.o)
 .comment       0x000000000000017a       0x12 coreutils/lib.a(hostid.o)
 .comment       0x000000000000018c       0x12 coreutils/lib.a(id.o)
 .comment       0x000000000000019e       0x12 coreutils/lib.a(ln.o)
 .comment       0x00000000000001b0       0x12 coreutils/lib.a(ls.o)
 .comment       0x00000000000001c2       0x12 coreutils/lib.a(mkdir.o)
 .comment       0x00000000000001d4       0x12 coreutils/lib.a(mkfifo.o)
 .comment       0x00000000000001e6       0x12 coreutils/lib.a(mknod.o)
 .comment       0x00000000000001f8       0x12 coreutils/lib.a(mv.o)
 .comment       0x000000000000020a       0x12 coreutils/lib.a(printf.o)
 .comment       0x000000000000021c       0x12 coreutils/lib.a(pwd.o)
 .comment       0x000000000000022e       0x12 coreutils/lib.a(rm.o)
 .comment       0x0000000000000240       0x12 coreutils/lib.a(rmdir.o)
 .comment       0x0000000000000252       0x12 coreutils/lib.a(sleep.o)
 .comment       0x0000000000000264       0x12 coreutils/lib.a(tail.o)
 .comment       0x0000000000000276       0x12 coreutils/lib.a(test.o)
 .comment       0x0000000000000288       0x12 coreutils/lib.a(touch.o)
 .comment       0x000000000000029a       0x12 coreutils/lib.a(true.o)
 .comment       0x00000000000002ac       0x12 coreutils/lib.a(uname.o)
 .comment       0x00000000000002be       0x12 coreutils/lib.a(usleep.o)
 .comment       0x00000000000002d0       0x12 coreutils/lib.a(yes.o)
 .comment       0x00000000000002e2       0x12 coreutils/libcoreutils/lib.a(cp_mv_stat.o)
 .comment       0x00000000000002f4       0x12 coreutils/libcoreutils/lib.a(getopt_mk_fifo_nod.o)
 .comment       0x0000000000000306       0x12 findutils/lib.a(find.o)
 .comment       0x0000000000000318       0x12 findutils/lib.a(grep.o)
 .comment       0x000000000000032a       0x12 findutils/lib.a(xargs.o)
 .comment       0x000000000000033c       0x12 init/lib.a(halt.o)
 .comment       0x000000000000034e       0x12 libbb/lib.a(ask_confirmation.o)
 .comment       0x0000000000000360       0x12 libbb/lib.a(bb_basename.o)
 .comment       0x0000000000000372       0x12 libbb/lib.a(bb_pwd.o)
 .comment       0x0000000000000384       0x12 libbb/lib.a(bb_strtonum.o)
 .comment       0x0000000000000396       0x12 libbb/lib.a(compare_string_array.o)
 .comment       0x00000000000003a8       0x12 libbb/lib.a(concat_path_file.o)
 .comment       0x00000000000003ba       0x12 libbb/lib.a(concat_subpath_file.o)
 .comment       0x00000000000003cc       0x12 libbb/lib.a(copy_file.o)
 .comment       0x00000000000003de       0x12 libbb/lib.a(copyfd.o)
 .comment       0x00000000000003f0       0x12 libbb/lib.a(crc32.o)
 .comment       0x0000000000000402       0x12 libbb/lib.a(default_error_retval.o)
 .comment       0x0000000000000414       0x12 libbb/lib.a(error_msg.o)
 .comment       0x0000000000000426       0x12 libbb/lib.a(error_msg_and_die.o)
 .comment       0x0000000000000438       0x12 libbb/lib.a(fclose_nonstdin.o)
 .comment       0x000000000000044a       0x12 libbb/lib.a(fflush_stdout_and_exit.o)
 .comment       0x000000000000045c       0x12 libbb/lib.a(find_mount_point.o)
 .comment       0x000000000000046e       0x12 libbb/lib.a(find_root_device.o)
 .comment       0x0000000000000480       0x12 libbb/lib.a(full_write.o)
 .comment       0x0000000000000492       0x12 libbb/lib.a(get_last_path_component.o)
 .comment       0x00000000000004a4       0x12 libbb/lib.a(get_line_from_file.o)
 .comment       0x00000000000004b6       0x12 libbb/lib.a(getopt32.o)
 .comment       0x00000000000004c8       0x12 libbb/lib.a(human_readable.o)
 .comment       0x00000000000004da       0x12 libbb/lib.a(inode_hash.o)
 .comment       0x00000000000004ec       0x12 libbb/lib.a(isdirectory.o)
 .comment       0x00000000000004fe       0x12 libbb/lib.a(last_char_is.o)
 .comment       0x0000000000000510       0x12 libbb/lib.a(llist.o)
 .comment       0x0000000000000522       0x12 libbb/lib.a(make_directory.o)
 .comment       0x0000000000000534       0x12 libbb/lib.a(makedev.o)
 .comment       0x0000000000000546       0x12 libbb/lib.a(messages.o)
 .comment       0x0000000000000558       0x12 libbb/lib.a(mode_string.o)
 .comment       0x000000000000056a       0x12 libbb/lib.a(mtab_file.o)
 .comment       0x000000000000057c       0x12 libbb/lib.a(parse_mode.o)
 .comment       0x000000000000058e       0x12 libbb/lib.a(perror_msg.o)
 .comment       0x00000000000005a0       0x12 libbb/lib.a(perror_msg_and_die.o)
 .comment       0x00000000000005b2       0x12 libbb/lib.a(perror_nomsg_and_die.o)
 .comment       0x00000000000005c4       0x12 libbb/lib.a(process_escape_sequence.o)
 .comment       0x00000000000005d6       0x12 libbb/lib.a(procps.o)
 .comment       0x00000000000005e8       0x12 libbb/lib.a(read.o)
 .comment       0x00000000000005fa       0x12 libbb/lib.a(recursive_action.o)
 .comment       0x000000000000060c       0x12 libbb/lib.a(remove_file.o)
 .comment       0x000000000000061e       0x12 libbb/lib.a(safe_strncpy.o)
 .comment       0x0000000000000630       0x12 libbb/lib.a(safe_write.o)
 .comment       0x0000000000000642       0x12 libbb/lib.a(skip_whitespace.o)
 .comment       0x0000000000000654       0x12 libbb/lib.a(verror_msg.o)
 .comment       0x0000000000000666       0x12 libbb/lib.a(vfork_daemon_rexec.o)
 .comment       0x0000000000000678       0x12 libbb/lib.a(wfopen.o)
 .comment       0x000000000000068a       0x12 libbb/lib.a(wfopen_input.o)
 .comment       0x000000000000069c       0x12 libbb/lib.a(xatonum.o)
 .comment       0x00000000000006ae       0x12 libbb/lib.a(xfuncs.o)
 .comment       0x00000000000006c0       0x12 libbb/lib.a(xgetcwd.o)
 .comment       0x00000000000006d2       0x12 libbb/lib.a(xreadlink.o)
 .comment       0x00000000000006e4       0x12 libbb/lib.a(xregcomp.o)
 .comment       0x00000000000006f6       0x12 libpwdgrp/lib.a(uidgid_get.o)
 .comment       0x0000000000000708       0x12 loginutils/lib.a(addgroup.o)
 .comment       0x000000000000071a       0x12 loginutils/lib.a(adduser.o)
 .comment       0x000000000000072c       0x12 loginutils/lib.a(deluser.o)
 .comment       0x000000000000073e       0x12 loginutils/lib.a(getty.o)
 .comment       0x0000000000000750       0x12 loginutils/lib.a(login.o)
 .comment       0x0000000000000762       0x12 loginutils/lib.a(passwd.o)
 .comment       0x0000000000000774       0x12 loginutils/lib.a(su.o)
 .comment       0x0000000000000786       0x12 loginutils/lib.a(sulogin.o)
 .comment       0x0000000000000798       0x12 miscutils/lib.a(less.o)
 .comment       0x00000000000007aa       0x12 modutils/lib.a(insmod.o)
 .comment       0x00000000000007bc       0x12 modutils/lib.a(lsmod.o)
 .comment       0x00000000000007ce       0x12 modutils/lib.a(rmmod.o)
 .comment       0x00000000000007e0       0x12 networking/lib.a(arp.o)
 .comment       0x00000000000007f2       0x12 networking/lib.a(ifconfig.o)
 .comment       0x0000000000000804       0x12 networking/lib.a(interface.o)
 .comment       0x0000000000000816       0x12 networking/lib.a(netstat.o)
 .comment       0x0000000000000828       0x12 networking/lib.a(ping.o)
 .comment       0x000000000000083a       0x12 networking/lib.a(route.o)
 .comment       0x000000000000084c       0x12 networking/lib.a(telnet.o)
 .comment       0x000000000000085e       0x12 networking/lib.a(telnetd.o)
 .comment       0x0000000000000870       0x12 networking/lib.a(wget.o)
 .comment       0x0000000000000882       0x12 procps/lib.a(free.o)
 .comment       0x0000000000000894       0x12 procps/lib.a(kill.o)
 .comment       0x00000000000008a6       0x12 procps/lib.a(ps.o)
 .comment       0x00000000000008b8       0x12 procps/lib.a(sysctl.o)
 .comment       0x00000000000008ca       0x12 procps/lib.a(top.o)
 .comment       0x00000000000008dc       0x12 procps/lib.a(uptime.o)
 .comment       0x00000000000008ee       0x12 shell/lib.a(msh.o)
 .comment       0x0000000000000900       0x12 sysklogd/lib.a(klogd.o)
 .comment       0x0000000000000912       0x12 sysklogd/lib.a(logger.o)
 .comment       0x0000000000000924       0x12 sysklogd/lib.a(logread.o)
 .comment       0x0000000000000936       0x12 sysklogd/lib.a(syslogd.o)
 .comment       0x0000000000000948       0x12 util-linux/lib.a(dmesg.o)
 .comment       0x000000000000095a       0x12 util-linux/lib.a(fdisk.o)
 .comment       0x000000000000096c       0x12 util-linux/lib.a(fsck_minix.o)
 .comment       0x000000000000097e       0x12 util-linux/lib.a(mkfs_minix.o)
 .comment       0x0000000000000990       0x12 util-linux/lib.a(more.o)
 .comment       0x00000000000009a2       0x12 util-linux/lib.a(mount.o)
 .comment       0x00000000000009b4       0x12 util-linux/lib.a(pivot_root.o)
 .comment       0x00000000000009c6       0x12 util-linux/lib.a(rdate.o)
 .comment       0x00000000000009d8       0x12 util-linux/lib.a(swaponoff.o)
 .comment       0x00000000000009ea       0x12 util-linux/lib.a(umount.o)
 .comment       0x00000000000009fc       0x12 libbb/lib.a(bb_askpass.o)
 .comment       0x0000000000000a0e       0x12 libbb/lib.a(bb_do_delay.o)
 .comment       0x0000000000000a20       0x12 libbb/lib.a(change_identity.o)
 .comment       0x0000000000000a32       0x12 libbb/lib.a(correct_password.o)
 .comment       0x0000000000000a44       0x12 libbb/lib.a(create_icmp_socket.o)
 .comment       0x0000000000000a56       0x12 libbb/lib.a(crypt_make_salt.o)
 .comment       0x0000000000000a68       0x12 libbb/lib.a(device_open.o)
 .comment       0x0000000000000a7a       0x12 libbb/lib.a(find_pid_by_name.o)
 .comment       0x0000000000000a8c       0x12 libbb/lib.a(herror_msg.o)
 .comment       0x0000000000000a9e       0x12 libbb/lib.a(herror_msg_and_die.o)
 .comment       0x0000000000000ab0       0x12 libbb/lib.a(inet_common.o)
 .comment       0x0000000000000ac2       0x12 libbb/lib.a(info_msg.o)
 .comment       0x0000000000000ad4       0x12 libbb/lib.a(kernel_version.o)
 .comment       0x0000000000000ae6       0x12 libbb/lib.a(lineedit.o)
 .comment       0x0000000000000af8       0x12 libbb/lib.a(login.o)
 .comment       0x0000000000000b0a       0x12 libbb/lib.a(loop.o)
 .comment       0x0000000000000b1c       0x12 libbb/lib.a(match_fstype.o)
 .comment       0x0000000000000b2e       0x12 libbb/lib.a(obscure.o)
 .comment       0x0000000000000b40       0x12 libbb/lib.a(pidfile.o)
 .comment       0x0000000000000b52       0x12 libbb/lib.a(pw_encrypt.o)
 .comment       0x0000000000000b64       0x12 libbb/lib.a(run_shell.o)
 .comment       0x0000000000000b76       0x12 libbb/lib.a(setup_environment.o)
 .comment       0x0000000000000b88       0x12 libbb/lib.a(simplify_path.o)
 .comment       0x0000000000000b9a       0x12 libbb/lib.a(speed_table.o)
 .comment       0x0000000000000bac       0x12 libbb/lib.a(str_tolower.o)
 .comment       0x0000000000000bbe       0x12 libbb/lib.a(time.o)
 .comment       0x0000000000000bd0       0x12 libbb/lib.a(trim.o)
 .comment       0x0000000000000be2       0x12 libbb/lib.a(u_signal_names.o)
 .comment       0x0000000000000bf4       0x12 libbb/lib.a(update_passwd.o)
 .comment       0x0000000000000c06       0x12 libbb/lib.a(uuencode.o)
 .comment       0x0000000000000c18       0x12 libbb/lib.a(xconnect.o)
 .comment       0x0000000000000c2a       0x12 libbb/lib.a(xgethostbyname.o)
 .comment       0x0000000000000c3c       0x12 /projects/hnd/tools/linux/hndtools-mipsel-linux-uclibc-4.2.3/lib/gcc/mipsel-linux-uclibc/4.2.3/libgcc.a(_divdi3.o)
 .comment       0x0000000000000c4e       0x12 /projects/hnd/tools/linux/hndtools-mipsel-linux-uclibc-4.2.3/lib/gcc/mipsel-linux-uclibc/4.2.3/libgcc.a(_udivdi3.o)
 .comment       0x0000000000000c60       0x12 /projects/hnd/tools/linux/hndtools-mipsel-linux-uclibc-4.2.3/lib/gcc/mipsel-linux-uclibc/4.2.3/libgcc.a(_umoddi3.o)
 .comment       0x0000000000000c72       0x12 /projects/hnd/tools/linux/hndtools-mipsel-linux-uclibc-4.2.3/lib/gcc/mipsel-linux-uclibc/4.2.3/libgcc.a(_clz.o)
 .comment       0x0000000000000c84       0x12 /projects/hnd/tools/linux/hndtools-mipsel-linux-uclibc-4.2.3/lib/gcc/mipsel-linux-uclibc/4.2.3/crtend.o
 .comment       0x0000000000000c96       0x12 /projects/hnd/tools/linux/hndtools-mipsel-linux-uclibc-4.2.3/lib/gcc/mipsel-linux-uclibc/4.2.3/../../../../mipsel-linux-uclibc/lib/crtn.o

.debug
 *(.debug)

.line
 *(.line)

.debug_srcinfo
 *(.debug_srcinfo)

.debug_sfnames
 *(.debug_sfnames)

.debug_aranges  0x0000000000000000       0x60
 *(.debug_aranges)
 .debug_aranges
                0x0000000000000000       0x20 /projects/hnd/tools/linux/hndtools-mipsel-linux-uclibc-4.2.3/lib/gcc/mipsel-linux-uclibc/4.2.3/libgcc.a(_divdi3.o)
 .debug_aranges
                0x0000000000000020       0x20 /projects/hnd/tools/linux/hndtools-mipsel-linux-uclibc-4.2.3/lib/gcc/mipsel-linux-uclibc/4.2.3/libgcc.a(_udivdi3.o)
 .debug_aranges
                0x0000000000000040       0x20 /projects/hnd/tools/linux/hndtools-mipsel-linux-uclibc-4.2.3/lib/gcc/mipsel-linux-uclibc/4.2.3/libgcc.a(_umoddi3.o)

.debug_pubnames
                0x0000000000000000       0x7f
 *(.debug_pubnames)
 .debug_pubnames
                0x0000000000000000       0x1f /projects/hnd/tools/linux/hndtools-mipsel-linux-uclibc-4.2.3/lib/gcc/mipsel-linux-uclibc/4.2.3/libgcc.a(_divdi3.o)
 .debug_pubnames
                0x000000000000001f       0x20 /projects/hnd/tools/linux/hndtools-mipsel-linux-uclibc-4.2.3/lib/gcc/mipsel-linux-uclibc/4.2.3/libgcc.a(_udivdi3.o)
 .debug_pubnames
                0x000000000000003f       0x20 /projects/hnd/tools/linux/hndtools-mipsel-linux-uclibc-4.2.3/lib/gcc/mipsel-linux-uclibc/4.2.3/libgcc.a(_umoddi3.o)
 .debug_pubnames
                0x000000000000005f       0x20 /projects/hnd/tools/linux/hndtools-mipsel-linux-uclibc-4.2.3/lib/gcc/mipsel-linux-uclibc/4.2.3/libgcc.a(_clz.o)

.debug_info     0x0000000000000000     0x1458
 *(.debug_info .gnu.linkonce.wi.*)
 .debug_info    0x0000000000000000      0x6b2 /projects/hnd/tools/linux/hndtools-mipsel-linux-uclibc-4.2.3/lib/gcc/mipsel-linux-uclibc/4.2.3/libgcc.a(_divdi3.o)
 .debug_info    0x00000000000006b2      0x66d /projects/hnd/tools/linux/hndtools-mipsel-linux-uclibc-4.2.3/lib/gcc/mipsel-linux-uclibc/4.2.3/libgcc.a(_udivdi3.o)
 .debug_info    0x0000000000000d1f      0x686 /projects/hnd/tools/linux/hndtools-mipsel-linux-uclibc-4.2.3/lib/gcc/mipsel-linux-uclibc/4.2.3/libgcc.a(_umoddi3.o)
 .debug_info    0x00000000000013a5       0xb3 /projects/hnd/tools/linux/hndtools-mipsel-linux-uclibc-4.2.3/lib/gcc/mipsel-linux-uclibc/4.2.3/libgcc.a(_clz.o)

.debug_abbrev   0x0000000000000000      0x50b
 *(.debug_abbrev)
 .debug_abbrev  0x0000000000000000      0x198 /projects/hnd/tools/linux/hndtools-mipsel-linux-uclibc-4.2.3/lib/gcc/mipsel-linux-uclibc/4.2.3/libgcc.a(_divdi3.o)
 .debug_abbrev  0x0000000000000198      0x189 /projects/hnd/tools/linux/hndtools-mipsel-linux-uclibc-4.2.3/lib/gcc/mipsel-linux-uclibc/4.2.3/libgcc.a(_udivdi3.o)
 .debug_abbrev  0x0000000000000321      0x182 /projects/hnd/tools/linux/hndtools-mipsel-linux-uclibc-4.2.3/lib/gcc/mipsel-linux-uclibc/4.2.3/libgcc.a(_umoddi3.o)
 .debug_abbrev  0x00000000000004a3       0x68 /projects/hnd/tools/linux/hndtools-mipsel-linux-uclibc-4.2.3/lib/gcc/mipsel-linux-uclibc/4.2.3/libgcc.a(_clz.o)

.debug_line     0x0000000000000000      0x4bf
 *(.debug_line)
 .debug_line    0x0000000000000000      0x152 /projects/hnd/tools/linux/hndtools-mipsel-linux-uclibc-4.2.3/lib/gcc/mipsel-linux-uclibc/4.2.3/libgcc.a(_divdi3.o)
 .debug_line    0x0000000000000152      0x148 /projects/hnd/tools/linux/hndtools-mipsel-linux-uclibc-4.2.3/lib/gcc/mipsel-linux-uclibc/4.2.3/libgcc.a(_udivdi3.o)
 .debug_line    0x000000000000029a      0x156 /projects/hnd/tools/linux/hndtools-mipsel-linux-uclibc-4.2.3/lib/gcc/mipsel-linux-uclibc/4.2.3/libgcc.a(_umoddi3.o)
 .debug_line    0x00000000000003f0       0xcf /projects/hnd/tools/linux/hndtools-mipsel-linux-uclibc-4.2.3/lib/gcc/mipsel-linux-uclibc/4.2.3/libgcc.a(_clz.o)

.debug_frame    0x0000000000000000       0x60
 *(.debug_frame)
 .debug_frame   0x0000000000000000       0x20 /projects/hnd/tools/linux/hndtools-mipsel-linux-uclibc-4.2.3/lib/gcc/mipsel-linux-uclibc/4.2.3/libgcc.a(_divdi3.o)
 .debug_frame   0x0000000000000020       0x20 /projects/hnd/tools/linux/hndtools-mipsel-linux-uclibc-4.2.3/lib/gcc/mipsel-linux-uclibc/4.2.3/libgcc.a(_udivdi3.o)
 .debug_frame   0x0000000000000040       0x20 /projects/hnd/tools/linux/hndtools-mipsel-linux-uclibc-4.2.3/lib/gcc/mipsel-linux-uclibc/4.2.3/libgcc.a(_umoddi3.o)

.debug_str      0x0000000000000000      0x1ad
 *(.debug_str)
 .debug_str     0x0000000000000000      0x199 /projects/hnd/tools/linux/hndtools-mipsel-linux-uclibc-4.2.3/lib/gcc/mipsel-linux-uclibc/4.2.3/libgcc.a(_divdi3.o)
                                        0x1d2 (size before relaxing)
 .debug_str     0x0000000000000199        0xa /projects/hnd/tools/linux/hndtools-mipsel-linux-uclibc-4.2.3/lib/gcc/mipsel-linux-uclibc/4.2.3/libgcc.a(_udivdi3.o)
                                        0x1c9 (size before relaxing)
 .debug_str     0x00000000000001a3        0xa /projects/hnd/tools/linux/hndtools-mipsel-linux-uclibc-4.2.3/lib/gcc/mipsel-linux-uclibc/4.2.3/libgcc.a(_umoddi3.o)
                                        0x1c9 (size before relaxing)
 .debug_str     0x0000000000000000      0x15b /projects/hnd/tools/linux/hndtools-mipsel-linux-uclibc-4.2.3/lib/gcc/mipsel-linux-uclibc/4.2.3/libgcc.a(_clz.o)

.debug_loc      0x0000000000000000     0x1577
 *(.debug_loc)
 .debug_loc     0x0000000000000000      0x8c3 /projects/hnd/tools/linux/hndtools-mipsel-linux-uclibc-4.2.3/lib/gcc/mipsel-linux-uclibc/4.2.3/libgcc.a(_divdi3.o)
 .debug_loc     0x00000000000008c3      0x6c9 /projects/hnd/tools/linux/hndtools-mipsel-linux-uclibc-4.2.3/lib/gcc/mipsel-linux-uclibc/4.2.3/libgcc.a(_udivdi3.o)
 .debug_loc     0x0000000000000f8c      0x5eb /projects/hnd/tools/linux/hndtools-mipsel-linux-uclibc-4.2.3/lib/gcc/mipsel-linux-uclibc/4.2.3/libgcc.a(_umoddi3.o)

.debug_macinfo
 *(.debug_macinfo)

.debug_weaknames
 *(.debug_weaknames)

.debug_funcnames
 *(.debug_funcnames)

.debug_typenames
 *(.debug_typenames)

.debug_varnames
 *(.debug_varnames)

.gptab.sdata
 *(.gptab.data)
 *(.gptab.sdata)

.gptab.sbss
 *(.gptab.bss)
 *(.gptab.sbss)

.mdebug.abi32   0x0000000000001577        0x0
 *(.mdebug.abi32)
 .mdebug.abi32  0x0000000000001577        0x0 /projects/hnd/tools/linux/hndtools-mipsel-linux-uclibc-4.2.3/lib/gcc/mipsel-linux-uclibc/4.2.3/../../../../mipsel-linux-uclibc/lib/crti.o
 .mdebug.abi32  0x0000000000001577        0x0 /projects/hnd/tools/linux/hndtools-mipsel-linux-uclibc-4.2.3/lib/gcc/mipsel-linux-uclibc/4.2.3/crtbegin.o
 .mdebug.abi32  0x0000000000001577        0x0 applets/built-in.o
 .mdebug.abi32  0x0000000000001577        0x0 archival/libunarchive/lib.a(decompress_bunzip2.o)
 .mdebug.abi32  0x0000000000001577        0x0 console-tools/lib.a(clear.o)
 .mdebug.abi32  0x0000000000001577        0x0 console-tools/lib.a(reset.o)
 .mdebug.abi32  0x0000000000001577        0x0 coreutils/lib.a(basename.o)
 .mdebug.abi32  0x0000000000001577        0x0 coreutils/lib.a(cat.o)
 .mdebug.abi32  0x0000000000001577        0x0 coreutils/lib.a(chgrp.o)
 .mdebug.abi32  0x0000000000001577        0x0 coreutils/lib.a(chmod.o)
 .mdebug.abi32  0x0000000000001577        0x0 coreutils/lib.a(chown.o)
 .mdebug.abi32  0x0000000000001577        0x0 coreutils/lib.a(cp.o)
 .mdebug.abi32  0x0000000000001577        0x0 coreutils/lib.a(cut.o)
 .mdebug.abi32  0x0000000000001577        0x0 coreutils/lib.a(df.o)
 .mdebug.abi32  0x0000000000001577        0x0 coreutils/lib.a(dirname.o)
 .mdebug.abi32  0x0000000000001577        0x0 coreutils/lib.a(du.o)
 .mdebug.abi32  0x0000000000001577        0x0 coreutils/lib.a(echo.o)
 .mdebug.abi32  0x0000000000001577        0x0 coreutils/lib.a(env.o)
 .mdebug.abi32  0x0000000000001577        0x0 coreutils/lib.a(expr.o)
 .mdebug.abi32  0x0000000000001577        0x0 coreutils/lib.a(false.o)
 .mdebug.abi32  0x0000000000001577        0x0 coreutils/lib.a(head.o)
 .mdebug.abi32  0x0000000000001577        0x0 coreutils/lib.a(hostid.o)
 .mdebug.abi32  0x0000000000001577        0x0 coreutils/lib.a(id.o)
 .mdebug.abi32  0x0000000000001577        0x0 coreutils/lib.a(ln.o)
 .mdebug.abi32  0x0000000000001577        0x0 coreutils/lib.a(ls.o)
 .mdebug.abi32  0x0000000000001577        0x0 coreutils/lib.a(mkdir.o)
 .mdebug.abi32  0x0000000000001577        0x0 coreutils/lib.a(mkfifo.o)
 .mdebug.abi32  0x0000000000001577        0x0 coreutils/lib.a(mknod.o)
 .mdebug.abi32  0x0000000000001577        0x0 coreutils/lib.a(mv.o)
 .mdebug.abi32  0x0000000000001577        0x0 coreutils/lib.a(printf.o)
 .mdebug.abi32  0x0000000000001577        0x0 coreutils/lib.a(pwd.o)
 .mdebug.abi32  0x0000000000001577        0x0 coreutils/lib.a(rm.o)
 .mdebug.abi32  0x0000000000001577        0x0 coreutils/lib.a(rmdir.o)
 .mdebug.abi32  0x0000000000001577        0x0 coreutils/lib.a(sleep.o)
 .mdebug.abi32  0x0000000000001577        0x0 coreutils/lib.a(tail.o)
 .mdebug.abi32  0x0000000000001577        0x0 coreutils/lib.a(test.o)
 .mdebug.abi32  0x0000000000001577        0x0 coreutils/lib.a(touch.o)
 .mdebug.abi32  0x0000000000001577        0x0 coreutils/lib.a(true.o)
 .mdebug.abi32  0x0000000000001577        0x0 coreutils/lib.a(uname.o)
 .mdebug.abi32  0x0000000000001577        0x0 coreutils/lib.a(usleep.o)
 .mdebug.abi32  0x0000000000001577        0x0 coreutils/lib.a(yes.o)
 .mdebug.abi32  0x0000000000001577        0x0 coreutils/libcoreutils/lib.a(cp_mv_stat.o)
 .mdebug.abi32  0x0000000000001577        0x0 coreutils/libcoreutils/lib.a(getopt_mk_fifo_nod.o)
 .mdebug.abi32  0x0000000000001577        0x0 findutils/lib.a(find.o)
 .mdebug.abi32  0x0000000000001577        0x0 findutils/lib.a(grep.o)
 .mdebug.abi32  0x0000000000001577        0x0 findutils/lib.a(xargs.o)
 .mdebug.abi32  0x0000000000001577        0x0 init/lib.a(halt.o)
 .mdebug.abi32  0x0000000000001577        0x0 libbb/lib.a(ask_confirmation.o)
 .mdebug.abi32  0x0000000000001577        0x0 libbb/lib.a(bb_basename.o)
 .mdebug.abi32  0x0000000000001577        0x0 libbb/lib.a(bb_pwd.o)
 .mdebug.abi32  0x0000000000001577        0x0 libbb/lib.a(bb_strtonum.o)
 .mdebug.abi32  0x0000000000001577        0x0 libbb/lib.a(compare_string_array.o)
 .mdebug.abi32  0x0000000000001577        0x0 libbb/lib.a(concat_path_file.o)
 .mdebug.abi32  0x0000000000001577        0x0 libbb/lib.a(concat_subpath_file.o)
 .mdebug.abi32  0x0000000000001577        0x0 libbb/lib.a(copy_file.o)
 .mdebug.abi32  0x0000000000001577        0x0 libbb/lib.a(copyfd.o)
 .mdebug.abi32  0x0000000000001577        0x0 libbb/lib.a(crc32.o)
 .mdebug.abi32  0x0000000000001577        0x0 libbb/lib.a(default_error_retval.o)
 .mdebug.abi32  0x0000000000001577        0x0 libbb/lib.a(error_msg.o)
 .mdebug.abi32  0x0000000000001577        0x0 libbb/lib.a(error_msg_and_die.o)
 .mdebug.abi32  0x0000000000001577        0x0 libbb/lib.a(fclose_nonstdin.o)
 .mdebug.abi32  0x0000000000001577        0x0 libbb/lib.a(fflush_stdout_and_exit.o)
 .mdebug.abi32  0x0000000000001577        0x0 libbb/lib.a(find_mount_point.o)
 .mdebug.abi32  0x0000000000001577        0x0 libbb/lib.a(find_root_device.o)
 .mdebug.abi32  0x0000000000001577        0x0 libbb/lib.a(full_write.o)
 .mdebug.abi32  0x0000000000001577        0x0 libbb/lib.a(get_last_path_component.o)
 .mdebug.abi32  0x0000000000001577        0x0 libbb/lib.a(get_line_from_file.o)
 .mdebug.abi32  0x0000000000001577        0x0 libbb/lib.a(getopt32.o)
 .mdebug.abi32  0x0000000000001577        0x0 libbb/lib.a(human_readable.o)
 .mdebug.abi32  0x0000000000001577        0x0 libbb/lib.a(inode_hash.o)
 .mdebug.abi32  0x0000000000001577        0x0 libbb/lib.a(isdirectory.o)
 .mdebug.abi32  0x0000000000001577        0x0 libbb/lib.a(last_char_is.o)
 .mdebug.abi32  0x0000000000001577        0x0 libbb/lib.a(llist.o)
 .mdebug.abi32  0x0000000000001577        0x0 libbb/lib.a(make_directory.o)
 .mdebug.abi32  0x0000000000001577        0x0 libbb/lib.a(makedev.o)
 .mdebug.abi32  0x0000000000001577        0x0 libbb/lib.a(messages.o)
 .mdebug.abi32  0x0000000000001577        0x0 libbb/lib.a(mode_string.o)
 .mdebug.abi32  0x0000000000001577        0x0 libbb/lib.a(mtab_file.o)
 .mdebug.abi32  0x0000000000001577        0x0 libbb/lib.a(parse_mode.o)
 .mdebug.abi32  0x0000000000001577        0x0 libbb/lib.a(perror_msg.o)
 .mdebug.abi32  0x0000000000001577        0x0 libbb/lib.a(perror_msg_and_die.o)
 .mdebug.abi32  0x0000000000001577        0x0 libbb/lib.a(perror_nomsg_and_die.o)
 .mdebug.abi32  0x0000000000001577        0x0 libbb/lib.a(process_escape_sequence.o)
 .mdebug.abi32  0x0000000000001577        0x0 libbb/lib.a(procps.o)
 .mdebug.abi32  0x0000000000001577        0x0 libbb/lib.a(read.o)
 .mdebug.abi32  0x0000000000001577        0x0 libbb/lib.a(recursive_action.o)
 .mdebug.abi32  0x0000000000001577        0x0 libbb/lib.a(remove_file.o)
 .mdebug.abi32  0x0000000000001577        0x0 libbb/lib.a(safe_strncpy.o)
 .mdebug.abi32  0x0000000000001577        0x0 libbb/lib.a(safe_write.o)
 .mdebug.abi32  0x0000000000001577        0x0 libbb/lib.a(skip_whitespace.o)
 .mdebug.abi32  0x0000000000001577        0x0 libbb/lib.a(verror_msg.o)
 .mdebug.abi32  0x0000000000001577        0x0 libbb/lib.a(vfork_daemon_rexec.o)
 .mdebug.abi32  0x0000000000001577        0x0 libbb/lib.a(wfopen.o)
 .mdebug.abi32  0x0000000000001577        0x0 libbb/lib.a(wfopen_input.o)
 .mdebug.abi32  0x0000000000001577        0x0 libbb/lib.a(xatonum.o)
 .mdebug.abi32  0x0000000000001577        0x0 libbb/lib.a(xfuncs.o)
 .mdebug.abi32  0x0000000000001577        0x0 libbb/lib.a(xgetcwd.o)
 .mdebug.abi32  0x0000000000001577        0x0 libbb/lib.a(xreadlink.o)
 .mdebug.abi32  0x0000000000001577        0x0 libbb/lib.a(xregcomp.o)
 .mdebug.abi32  0x0000000000001577        0x0 libpwdgrp/lib.a(uidgid_get.o)
 .mdebug.abi32  0x0000000000001577        0x0 loginutils/lib.a(addgroup.o)
 .mdebug.abi32  0x0000000000001577        0x0 loginutils/lib.a(adduser.o)
 .mdebug.abi32  0x0000000000001577        0x0 loginutils/lib.a(deluser.o)
 .mdebug.abi32  0x0000000000001577        0x0 loginutils/lib.a(getty.o)
 .mdebug.abi32  0x0000000000001577        0x0 loginutils/lib.a(login.o)
 .mdebug.abi32  0x0000000000001577        0x0 loginutils/lib.a(passwd.o)
 .mdebug.abi32  0x0000000000001577        0x0 loginutils/lib.a(su.o)
 .mdebug.abi32  0x0000000000001577        0x0 loginutils/lib.a(sulogin.o)
 .mdebug.abi32  0x0000000000001577        0x0 miscutils/lib.a(less.o)
 .mdebug.abi32  0x0000000000001577        0x0 modutils/lib.a(insmod.o)
 .mdebug.abi32  0x0000000000001577        0x0 modutils/lib.a(lsmod.o)
 .mdebug.abi32  0x0000000000001577        0x0 modutils/lib.a(rmmod.o)
 .mdebug.abi32  0x0000000000001577        0x0 networking/lib.a(arp.o)
 .mdebug.abi32  0x0000000000001577        0x0 networking/lib.a(ifconfig.o)
 .mdebug.abi32  0x0000000000001577        0x0 networking/lib.a(interface.o)
 .mdebug.abi32  0x0000000000001577        0x0 networking/lib.a(netstat.o)
 .mdebug.abi32  0x0000000000001577        0x0 networking/lib.a(ping.o)
 .mdebug.abi32  0x0000000000001577        0x0 networking/lib.a(route.o)
 .mdebug.abi32  0x0000000000001577        0x0 networking/lib.a(telnet.o)
 .mdebug.abi32  0x0000000000001577        0x0 networking/lib.a(telnetd.o)
 .mdebug.abi32  0x0000000000001577        0x0 networking/lib.a(wget.o)
 .mdebug.abi32  0x0000000000001577        0x0 procps/lib.a(free.o)
 .mdebug.abi32  0x0000000000001577        0x0 procps/lib.a(kill.o)
 .mdebug.abi32  0x0000000000001577        0x0 procps/lib.a(ps.o)
 .mdebug.abi32  0x0000000000001577        0x0 procps/lib.a(sysctl.o)
 .mdebug.abi32  0x0000000000001577        0x0 procps/lib.a(top.o)
 .mdebug.abi32  0x0000000000001577        0x0 procps/lib.a(uptime.o)
 .mdebug.abi32  0x0000000000001577        0x0 shell/lib.a(msh.o)
 .mdebug.abi32  0x0000000000001577        0x0 sysklogd/lib.a(klogd.o)
 .mdebug.abi32  0x0000000000001577        0x0 sysklogd/lib.a(logger.o)
 .mdebug.abi32  0x0000000000001577        0x0 sysklogd/lib.a(logread.o)
 .mdebug.abi32  0x0000000000001577        0x0 sysklogd/lib.a(syslogd.o)
 .mdebug.abi32  0x0000000000001577        0x0 util-linux/lib.a(dmesg.o)
 .mdebug.abi32  0x0000000000001577        0x0 util-linux/lib.a(fdisk.o)
 .mdebug.abi32  0x0000000000001577        0x0 util-linux/lib.a(fsck_minix.o)
 .mdebug.abi32  0x0000000000001577        0x0 util-linux/lib.a(mkfs_minix.o)
 .mdebug.abi32  0x0000000000001577        0x0 util-linux/lib.a(more.o)
 .mdebug.abi32  0x0000000000001577        0x0 util-linux/lib.a(mount.o)
 .mdebug.abi32  0x0000000000001577        0x0 util-linux/lib.a(pivot_root.o)
 .mdebug.abi32  0x0000000000001577        0x0 util-linux/lib.a(rdate.o)
 .mdebug.abi32  0x0000000000001577        0x0 util-linux/lib.a(swaponoff.o)
 .mdebug.abi32  0x0000000000001577        0x0 util-linux/lib.a(umount.o)
 .mdebug.abi32  0x0000000000001577        0x0 libbb/lib.a(bb_askpass.o)
 .mdebug.abi32  0x0000000000001577        0x0 libbb/lib.a(bb_do_delay.o)
 .mdebug.abi32  0x0000000000001577        0x0 libbb/lib.a(change_identity.o)
 .mdebug.abi32  0x0000000000001577        0x0 libbb/lib.a(correct_password.o)
 .mdebug.abi32  0x0000000000001577        0x0 libbb/lib.a(create_icmp_socket.o)
 .mdebug.abi32  0x0000000000001577        0x0 libbb/lib.a(crypt_make_salt.o)
 .mdebug.abi32  0x0000000000001577        0x0 libbb/lib.a(device_open.o)
 .mdebug.abi32  0x0000000000001577        0x0 libbb/lib.a(find_pid_by_name.o)
 .mdebug.abi32  0x0000000000001577        0x0 libbb/lib.a(herror_msg.o)
 .mdebug.abi32  0x0000000000001577        0x0 libbb/lib.a(herror_msg_and_die.o)
 .mdebug.abi32  0x0000000000001577        0x0 libbb/lib.a(inet_common.o)
 .mdebug.abi32  0x0000000000001577        0x0 libbb/lib.a(info_msg.o)
 .mdebug.abi32  0x0000000000001577        0x0 libbb/lib.a(kernel_version.o)
 .mdebug.abi32  0x0000000000001577        0x0 libbb/lib.a(lineedit.o)
 .mdebug.abi32  0x0000000000001577        0x0 libbb/lib.a(login.o)
 .mdebug.abi32  0x0000000000001577        0x0 libbb/lib.a(loop.o)
 .mdebug.abi32  0x0000000000001577        0x0 libbb/lib.a(match_fstype.o)
 .mdebug.abi32  0x0000000000001577        0x0 libbb/lib.a(obscure.o)
 .mdebug.abi32  0x0000000000001577        0x0 libbb/lib.a(pidfile.o)
 .mdebug.abi32  0x0000000000001577        0x0 libbb/lib.a(pw_encrypt.o)
 .mdebug.abi32  0x0000000000001577        0x0 libbb/lib.a(run_shell.o)
 .mdebug.abi32  0x0000000000001577        0x0 libbb/lib.a(setup_environment.o)
 .mdebug.abi32  0x0000000000001577        0x0 libbb/lib.a(simplify_path.o)
 .mdebug.abi32  0x0000000000001577        0x0 libbb/lib.a(speed_table.o)
 .mdebug.abi32  0x0000000000001577        0x0 libbb/lib.a(str_tolower.o)
 .mdebug.abi32  0x0000000000001577        0x0 libbb/lib.a(time.o)
 .mdebug.abi32  0x0000000000001577        0x0 libbb/lib.a(trim.o)
 .mdebug.abi32  0x0000000000001577        0x0 libbb/lib.a(u_signal_names.o)
 .mdebug.abi32  0x0000000000001577        0x0 libbb/lib.a(update_passwd.o)
 .mdebug.abi32  0x0000000000001577        0x0 libbb/lib.a(uuencode.o)
 .mdebug.abi32  0x0000000000001577        0x0 libbb/lib.a(xconnect.o)
 .mdebug.abi32  0x0000000000001577        0x0 libbb/lib.a(xgethostbyname.o)
 .mdebug.abi32  0x0000000000001577        0x0 /projects/hnd/tools/linux/hndtools-mipsel-linux-uclibc-4.2.3/lib/gcc/mipsel-linux-uclibc/4.2.3/libgcc.a(_divdi3.o)
 .mdebug.abi32  0x0000000000001577        0x0 /projects/hnd/tools/linux/hndtools-mipsel-linux-uclibc-4.2.3/lib/gcc/mipsel-linux-uclibc/4.2.3/libgcc.a(_udivdi3.o)
 .mdebug.abi32  0x0000000000001577        0x0 /projects/hnd/tools/linux/hndtools-mipsel-linux-uclibc-4.2.3/lib/gcc/mipsel-linux-uclibc/4.2.3/libgcc.a(_umoddi3.o)
 .mdebug.abi32  0x0000000000001577        0x0 /projects/hnd/tools/linux/hndtools-mipsel-linux-uclibc-4.2.3/lib/gcc/mipsel-linux-uclibc/4.2.3/libgcc.a(_clz.o)
 .mdebug.abi32  0x0000000000001577        0x0 /projects/hnd/tools/linux/hndtools-mipsel-linux-uclibc-4.2.3/lib/uclibc_nonshared.a(atexit.os)
 .mdebug.abi32  0x0000000000001577        0x0 /projects/hnd/tools/linux/hndtools-mipsel-linux-uclibc-4.2.3/lib/gcc/mipsel-linux-uclibc/4.2.3/crtend.o
 .mdebug.abi32  0x0000000000001577        0x0 /projects/hnd/tools/linux/hndtools-mipsel-linux-uclibc-4.2.3/lib/gcc/mipsel-linux-uclibc/4.2.3/../../../../mipsel-linux-uclibc/lib/crtn.o

.mdebug.abiN32
 *(.mdebug.abiN32)

.mdebug.abi64
 *(.mdebug.abi64)

.mdebug.abiO64
 *(.mdebug.abiO64)

.mdebug.eabi32
 *(.mdebug.eabi32)

.mdebug.eabi64
 *(.mdebug.eabi64)

.gcc_compiled_long32
 *(.gcc_compiled_long32)

.gcc_compiled_long64
 *(.gcc_compiled_long64)

/DISCARD/
 *(.note.GNU-stack)
OUTPUT(busybox_unstripped elf32-tradlittlemips)

.pdr            0x0000000000000000        0x0
 .pdr           0x0000000000000000        0x0 /projects/hnd/tools/linux/hndtools-mipsel-linux-uclibc-4.2.3/lib/gcc/mipsel-linux-uclibc/4.2.3/../../../../mipsel-linux-uclibc/lib/crt1.o
 .pdr           0x0000000000000000        0x0 /projects/hnd/tools/linux/hndtools-mipsel-linux-uclibc-4.2.3/lib/gcc/mipsel-linux-uclibc/4.2.3/crtbegin.o
 .pdr           0x0000000000000000        0x0 libbb/lib.a(default_error_retval.o)
 .pdr           0x0000000000000000        0x0 libbb/lib.a(messages.o)
 .pdr           0x0000000000000000        0x0 libbb/lib.a(mtab_file.o)
 .pdr           0x0000000000000000        0x0 /projects/hnd/tools/linux/hndtools-mipsel-linux-uclibc-4.2.3/lib/gcc/mipsel-linux-uclibc/4.2.3/libgcc.a(_clz.o)
 .pdr           0x0000000000000000        0x0 /projects/hnd/tools/linux/hndtools-mipsel-linux-uclibc-4.2.3/lib/gcc/mipsel-linux-uclibc/4.2.3/crtend.o

.debug_ranges   0x0000000000000000       0xd0
 .debug_ranges  0x0000000000000000       0x48 /projects/hnd/tools/linux/hndtools-mipsel-linux-uclibc-4.2.3/lib/gcc/mipsel-linux-uclibc/4.2.3/libgcc.a(_divdi3.o)
 .debug_ranges  0x0000000000000048       0x40 /projects/hnd/tools/linux/hndtools-mipsel-linux-uclibc-4.2.3/lib/gcc/mipsel-linux-uclibc/4.2.3/libgcc.a(_udivdi3.o)
 .debug_ranges  0x0000000000000088       0x48 /projects/hnd/tools/linux/hndtools-mipsel-linux-uclibc-4.2.3/lib/gcc/mipsel-linux-uclibc/4.2.3/libgcc.a(_umoddi3.o)
